Archive member included to satisfy reference by file (symbol)

c:/ti/ccs1220/ccs/tools/compiler/gcc-arm-none-eabi-9-2019-q4-major/bin/../lib/gcc/arm-none-eabi/9.2.1/../../../../arm-none-eabi/lib/thumb/v7e-m/nofp\libc.a(lib_a-exit.o)
                              c:/ti/ccs1220/ccs/tools/compiler/gcc-arm-none-eabi-9-2019-q4-major/bin/../lib/gcc/arm-none-eabi/9.2.1/../../../../arm-none-eabi/lib/thumb/v7e-m/nofp/crt0.o (exit)
c:/ti/ccs1220/ccs/tools/compiler/gcc-arm-none-eabi-9-2019-q4-major/bin/../lib/gcc/arm-none-eabi/9.2.1/../../../../arm-none-eabi/lib/thumb/v7e-m/nofp\libc.a(lib_a-impure.o)
                              c:/ti/ccs1220/ccs/tools/compiler/gcc-arm-none-eabi-9-2019-q4-major/bin/../lib/gcc/arm-none-eabi/9.2.1/../../../../arm-none-eabi/lib/thumb/v7e-m/nofp\libc.a(lib_a-exit.o) (_global_impure_ptr)
c:/ti/ccs1220/ccs/tools/compiler/gcc-arm-none-eabi-9-2019-q4-major/bin/../lib/gcc/arm-none-eabi/9.2.1/../../../../arm-none-eabi/lib/thumb/v7e-m/nofp\libc.a(lib_a-init.o)
                              c:/ti/ccs1220/ccs/tools/compiler/gcc-arm-none-eabi-9-2019-q4-major/bin/../lib/gcc/arm-none-eabi/9.2.1/../../../../arm-none-eabi/lib/thumb/v7e-m/nofp/crt0.o (__libc_init_array)
c:/ti/ccs1220/ccs/tools/compiler/gcc-arm-none-eabi-9-2019-q4-major/bin/../lib/gcc/arm-none-eabi/9.2.1/../../../../arm-none-eabi/lib/thumb/v7e-m/nofp\libc.a(lib_a-memcpy.o)
                              ./Source/FreeRtos/queue.o (memcpy)
c:/ti/ccs1220/ccs/tools/compiler/gcc-arm-none-eabi-9-2019-q4-major/bin/../lib/gcc/arm-none-eabi/9.2.1/../../../../arm-none-eabi/lib/thumb/v7e-m/nofp\libc.a(lib_a-memset.o)
                              c:/ti/ccs1220/ccs/tools/compiler/gcc-arm-none-eabi-9-2019-q4-major/bin/../lib/gcc/arm-none-eabi/9.2.1/../../../../arm-none-eabi/lib/thumb/v7e-m/nofp/crt0.o (memset)
c:/ti/ccs1220/ccs/tools/compiler/gcc-arm-none-eabi-9-2019-q4-major/bin/../lib/gcc/arm-none-eabi/9.2.1/../../../../arm-none-eabi/lib/thumb/v7e-m/nofp\libc.a(lib_a-printf.o)
                              ./Source/FreeRtos/tasks.o (printf)
c:/ti/ccs1220/ccs/tools/compiler/gcc-arm-none-eabi-9-2019-q4-major/bin/../lib/gcc/arm-none-eabi/9.2.1/../../../../arm-none-eabi/lib/thumb/v7e-m/nofp\libc.a(lib_a-puts.o)
                              ./Source/FreeRtos/tasks.o (puts)
c:/ti/ccs1220/ccs/tools/compiler/gcc-arm-none-eabi-9-2019-q4-major/bin/../lib/gcc/arm-none-eabi/9.2.1/../../../../arm-none-eabi/lib/thumb/v7e-m/nofp\libc.a(lib_a-strlen.o)
                              c:/ti/ccs1220/ccs/tools/compiler/gcc-arm-none-eabi-9-2019-q4-major/bin/../lib/gcc/arm-none-eabi/9.2.1/../../../../arm-none-eabi/lib/thumb/v7e-m/nofp\libc.a(lib_a-puts.o) (strlen)
c:/ti/ccs1220/ccs/tools/compiler/gcc-arm-none-eabi-9-2019-q4-major/bin/../lib/gcc/arm-none-eabi/9.2.1/../../../../arm-none-eabi/lib/thumb/v7e-m/nofp\libc.a(lib_a-vfprintf.o)
                              c:/ti/ccs1220/ccs/tools/compiler/gcc-arm-none-eabi-9-2019-q4-major/bin/../lib/gcc/arm-none-eabi/9.2.1/../../../../arm-none-eabi/lib/thumb/v7e-m/nofp\libc.a(lib_a-printf.o) (_vfprintf_r)
c:/ti/ccs1220/ccs/tools/compiler/gcc-arm-none-eabi-9-2019-q4-major/bin/../lib/gcc/arm-none-eabi/9.2.1/../../../../arm-none-eabi/lib/thumb/v7e-m/nofp\libc.a(lib_a-wsetup.o)
                              c:/ti/ccs1220/ccs/tools/compiler/gcc-arm-none-eabi-9-2019-q4-major/bin/../lib/gcc/arm-none-eabi/9.2.1/../../../../arm-none-eabi/lib/thumb/v7e-m/nofp\libc.a(lib_a-vfprintf.o) (__swsetup_r)
c:/ti/ccs1220/ccs/tools/compiler/gcc-arm-none-eabi-9-2019-q4-major/bin/../lib/gcc/arm-none-eabi/9.2.1/../../../../arm-none-eabi/lib/thumb/v7e-m/nofp\libc.a(lib_a-__call_atexit.o)
                              c:/ti/ccs1220/ccs/tools/compiler/gcc-arm-none-eabi-9-2019-q4-major/bin/../lib/gcc/arm-none-eabi/9.2.1/../../../../arm-none-eabi/lib/thumb/v7e-m/nofp\libc.a(lib_a-exit.o) (__call_exitprocs)
c:/ti/ccs1220/ccs/tools/compiler/gcc-arm-none-eabi-9-2019-q4-major/bin/../lib/gcc/arm-none-eabi/9.2.1/../../../../arm-none-eabi/lib/thumb/v7e-m/nofp\libc.a(lib_a-atexit.o)
                              c:/ti/ccs1220/ccs/tools/compiler/gcc-arm-none-eabi-9-2019-q4-major/bin/../lib/gcc/arm-none-eabi/9.2.1/../../../../arm-none-eabi/lib/thumb/v7e-m/nofp\libc.a(lib_a-__call_atexit.o) (atexit)
c:/ti/ccs1220/ccs/tools/compiler/gcc-arm-none-eabi-9-2019-q4-major/bin/../lib/gcc/arm-none-eabi/9.2.1/../../../../arm-none-eabi/lib/thumb/v7e-m/nofp\libc.a(lib_a-dtoa.o)
                              c:/ti/ccs1220/ccs/tools/compiler/gcc-arm-none-eabi-9-2019-q4-major/bin/../lib/gcc/arm-none-eabi/9.2.1/../../../../arm-none-eabi/lib/thumb/v7e-m/nofp\libc.a(lib_a-vfprintf.o) (_dtoa_r)
c:/ti/ccs1220/ccs/tools/compiler/gcc-arm-none-eabi-9-2019-q4-major/bin/../lib/gcc/arm-none-eabi/9.2.1/../../../../arm-none-eabi/lib/thumb/v7e-m/nofp\libc.a(lib_a-fflush.o)
                              c:/ti/ccs1220/ccs/tools/compiler/gcc-arm-none-eabi-9-2019-q4-major/bin/../lib/gcc/arm-none-eabi/9.2.1/../../../../arm-none-eabi/lib/thumb/v7e-m/nofp\libc.a(lib_a-vfprintf.o) (_fflush_r)
c:/ti/ccs1220/ccs/tools/compiler/gcc-arm-none-eabi-9-2019-q4-major/bin/../lib/gcc/arm-none-eabi/9.2.1/../../../../arm-none-eabi/lib/thumb/v7e-m/nofp\libc.a(lib_a-findfp.o)
                              c:/ti/ccs1220/ccs/tools/compiler/gcc-arm-none-eabi-9-2019-q4-major/bin/../lib/gcc/arm-none-eabi/9.2.1/../../../../arm-none-eabi/lib/thumb/v7e-m/nofp\libc.a(lib_a-puts.o) (__sinit)
c:/ti/ccs1220/ccs/tools/compiler/gcc-arm-none-eabi-9-2019-q4-major/bin/../lib/gcc/arm-none-eabi/9.2.1/../../../../arm-none-eabi/lib/thumb/v7e-m/nofp\libc.a(lib_a-fini.o)
                              c:/ti/ccs1220/ccs/tools/compiler/gcc-arm-none-eabi-9-2019-q4-major/bin/../lib/gcc/arm-none-eabi/9.2.1/../../../../arm-none-eabi/lib/thumb/v7e-m/nofp\libc.a(lib_a-__call_atexit.o) (__libc_fini_array)
c:/ti/ccs1220/ccs/tools/compiler/gcc-arm-none-eabi-9-2019-q4-major/bin/../lib/gcc/arm-none-eabi/9.2.1/../../../../arm-none-eabi/lib/thumb/v7e-m/nofp\libc.a(lib_a-freer.o)
                              c:/ti/ccs1220/ccs/tools/compiler/gcc-arm-none-eabi-9-2019-q4-major/bin/../lib/gcc/arm-none-eabi/9.2.1/../../../../arm-none-eabi/lib/thumb/v7e-m/nofp\libc.a(lib_a-vfprintf.o) (_free_r)
c:/ti/ccs1220/ccs/tools/compiler/gcc-arm-none-eabi-9-2019-q4-major/bin/../lib/gcc/arm-none-eabi/9.2.1/../../../../arm-none-eabi/lib/thumb/v7e-m/nofp\libc.a(lib_a-fvwrite.o)
                              c:/ti/ccs1220/ccs/tools/compiler/gcc-arm-none-eabi-9-2019-q4-major/bin/../lib/gcc/arm-none-eabi/9.2.1/../../../../arm-none-eabi/lib/thumb/v7e-m/nofp\libc.a(lib_a-puts.o) (__sfvwrite_r)
c:/ti/ccs1220/ccs/tools/compiler/gcc-arm-none-eabi-9-2019-q4-major/bin/../lib/gcc/arm-none-eabi/9.2.1/../../../../arm-none-eabi/lib/thumb/v7e-m/nofp\libc.a(lib_a-fwalk.o)
                              c:/ti/ccs1220/ccs/tools/compiler/gcc-arm-none-eabi-9-2019-q4-major/bin/../lib/gcc/arm-none-eabi/9.2.1/../../../../arm-none-eabi/lib/thumb/v7e-m/nofp\libc.a(lib_a-findfp.o) (_fwalk)
c:/ti/ccs1220/ccs/tools/compiler/gcc-arm-none-eabi-9-2019-q4-major/bin/../lib/gcc/arm-none-eabi/9.2.1/../../../../arm-none-eabi/lib/thumb/v7e-m/nofp\libc.a(lib_a-localeconv.o)
                              c:/ti/ccs1220/ccs/tools/compiler/gcc-arm-none-eabi-9-2019-q4-major/bin/../lib/gcc/arm-none-eabi/9.2.1/../../../../arm-none-eabi/lib/thumb/v7e-m/nofp\libc.a(lib_a-vfprintf.o) (_localeconv_r)
c:/ti/ccs1220/ccs/tools/compiler/gcc-arm-none-eabi-9-2019-q4-major/bin/../lib/gcc/arm-none-eabi/9.2.1/../../../../arm-none-eabi/lib/thumb/v7e-m/nofp\libc.a(lib_a-lock.o)
                              c:/ti/ccs1220/ccs/tools/compiler/gcc-arm-none-eabi-9-2019-q4-major/bin/../lib/gcc/arm-none-eabi/9.2.1/../../../../arm-none-eabi/lib/thumb/v7e-m/nofp\libc.a(lib_a-vfprintf.o) (__retarget_lock_init_recursive)
c:/ti/ccs1220/ccs/tools/compiler/gcc-arm-none-eabi-9-2019-q4-major/bin/../lib/gcc/arm-none-eabi/9.2.1/../../../../arm-none-eabi/lib/thumb/v7e-m/nofp\libc.a(lib_a-makebuf.o)
                              c:/ti/ccs1220/ccs/tools/compiler/gcc-arm-none-eabi-9-2019-q4-major/bin/../lib/gcc/arm-none-eabi/9.2.1/../../../../arm-none-eabi/lib/thumb/v7e-m/nofp\libc.a(lib_a-wsetup.o) (__smakebuf_r)
c:/ti/ccs1220/ccs/tools/compiler/gcc-arm-none-eabi-9-2019-q4-major/bin/../lib/gcc/arm-none-eabi/9.2.1/../../../../arm-none-eabi/lib/thumb/v7e-m/nofp\libc.a(lib_a-mallocr.o)
                              c:/ti/ccs1220/ccs/tools/compiler/gcc-arm-none-eabi-9-2019-q4-major/bin/../lib/gcc/arm-none-eabi/9.2.1/../../../../arm-none-eabi/lib/thumb/v7e-m/nofp\libc.a(lib_a-vfprintf.o) (_malloc_r)
c:/ti/ccs1220/ccs/tools/compiler/gcc-arm-none-eabi-9-2019-q4-major/bin/../lib/gcc/arm-none-eabi/9.2.1/../../../../arm-none-eabi/lib/thumb/v7e-m/nofp\libc.a(lib_a-memchr.o)
                              c:/ti/ccs1220/ccs/tools/compiler/gcc-arm-none-eabi-9-2019-q4-major/bin/../lib/gcc/arm-none-eabi/9.2.1/../../../../arm-none-eabi/lib/thumb/v7e-m/nofp\libc.a(lib_a-vfprintf.o) (memchr)
c:/ti/ccs1220/ccs/tools/compiler/gcc-arm-none-eabi-9-2019-q4-major/bin/../lib/gcc/arm-none-eabi/9.2.1/../../../../arm-none-eabi/lib/thumb/v7e-m/nofp\libc.a(lib_a-memmove.o)
                              c:/ti/ccs1220/ccs/tools/compiler/gcc-arm-none-eabi-9-2019-q4-major/bin/../lib/gcc/arm-none-eabi/9.2.1/../../../../arm-none-eabi/lib/thumb/v7e-m/nofp\libc.a(lib_a-fvwrite.o) (memmove)
c:/ti/ccs1220/ccs/tools/compiler/gcc-arm-none-eabi-9-2019-q4-major/bin/../lib/gcc/arm-none-eabi/9.2.1/../../../../arm-none-eabi/lib/thumb/v7e-m/nofp\libc.a(lib_a-mlock.o)
                              c:/ti/ccs1220/ccs/tools/compiler/gcc-arm-none-eabi-9-2019-q4-major/bin/../lib/gcc/arm-none-eabi/9.2.1/../../../../arm-none-eabi/lib/thumb/v7e-m/nofp\libc.a(lib_a-freer.o) (__malloc_lock)
c:/ti/ccs1220/ccs/tools/compiler/gcc-arm-none-eabi-9-2019-q4-major/bin/../lib/gcc/arm-none-eabi/9.2.1/../../../../arm-none-eabi/lib/thumb/v7e-m/nofp\libc.a(lib_a-mprec.o)
                              c:/ti/ccs1220/ccs/tools/compiler/gcc-arm-none-eabi-9-2019-q4-major/bin/../lib/gcc/arm-none-eabi/9.2.1/../../../../arm-none-eabi/lib/thumb/v7e-m/nofp\libc.a(lib_a-dtoa.o) (_Balloc)
c:/ti/ccs1220/ccs/tools/compiler/gcc-arm-none-eabi-9-2019-q4-major/bin/../lib/gcc/arm-none-eabi/9.2.1/../../../../arm-none-eabi/lib/thumb/v7e-m/nofp\libc.a(lib_a-reallocr.o)
                              c:/ti/ccs1220/ccs/tools/compiler/gcc-arm-none-eabi-9-2019-q4-major/bin/../lib/gcc/arm-none-eabi/9.2.1/../../../../arm-none-eabi/lib/thumb/v7e-m/nofp\libc.a(lib_a-fvwrite.o) (_realloc_r)
c:/ti/ccs1220/ccs/tools/compiler/gcc-arm-none-eabi-9-2019-q4-major/bin/../lib/gcc/arm-none-eabi/9.2.1/../../../../arm-none-eabi/lib/thumb/v7e-m/nofp\libc.a(lib_a-s_frexp.o)
                              c:/ti/ccs1220/ccs/tools/compiler/gcc-arm-none-eabi-9-2019-q4-major/bin/../lib/gcc/arm-none-eabi/9.2.1/../../../../arm-none-eabi/lib/thumb/v7e-m/nofp\libc.a(lib_a-vfprintf.o) (frexp)
c:/ti/ccs1220/ccs/tools/compiler/gcc-arm-none-eabi-9-2019-q4-major/bin/../lib/gcc/arm-none-eabi/9.2.1/../../../../arm-none-eabi/lib/thumb/v7e-m/nofp\libc.a(lib_a-sbrkr.o)
                              c:/ti/ccs1220/ccs/tools/compiler/gcc-arm-none-eabi-9-2019-q4-major/bin/../lib/gcc/arm-none-eabi/9.2.1/../../../../arm-none-eabi/lib/thumb/v7e-m/nofp\libc.a(lib_a-freer.o) (_sbrk_r)
c:/ti/ccs1220/ccs/tools/compiler/gcc-arm-none-eabi-9-2019-q4-major/bin/../lib/gcc/arm-none-eabi/9.2.1/../../../../arm-none-eabi/lib/thumb/v7e-m/nofp\libc.a(lib_a-stdio.o)
                              c:/ti/ccs1220/ccs/tools/compiler/gcc-arm-none-eabi-9-2019-q4-major/bin/../lib/gcc/arm-none-eabi/9.2.1/../../../../arm-none-eabi/lib/thumb/v7e-m/nofp\libc.a(lib_a-findfp.o) (__sread)
c:/ti/ccs1220/ccs/tools/compiler/gcc-arm-none-eabi-9-2019-q4-major/bin/../lib/gcc/arm-none-eabi/9.2.1/../../../../arm-none-eabi/lib/thumb/v7e-m/nofp\libc.a(lib_a-strncpy.o)
                              c:/ti/ccs1220/ccs/tools/compiler/gcc-arm-none-eabi-9-2019-q4-major/bin/../lib/gcc/arm-none-eabi/9.2.1/../../../../arm-none-eabi/lib/thumb/v7e-m/nofp\libc.a(lib_a-vfprintf.o) (strncpy)
c:/ti/ccs1220/ccs/tools/compiler/gcc-arm-none-eabi-9-2019-q4-major/bin/../lib/gcc/arm-none-eabi/9.2.1/../../../../arm-none-eabi/lib/thumb/v7e-m/nofp\libc.a(lib_a-vfiprintf.o)
                              c:/ti/ccs1220/ccs/tools/compiler/gcc-arm-none-eabi-9-2019-q4-major/bin/../lib/gcc/arm-none-eabi/9.2.1/../../../../arm-none-eabi/lib/thumb/v7e-m/nofp\libc.a(lib_a-vfprintf.o) (__sprint_r)
c:/ti/ccs1220/ccs/tools/compiler/gcc-arm-none-eabi-9-2019-q4-major/bin/../lib/gcc/arm-none-eabi/9.2.1/../../../../arm-none-eabi/lib/thumb/v7e-m/nofp\libc.a(lib_a-writer.o)
                              c:/ti/ccs1220/ccs/tools/compiler/gcc-arm-none-eabi-9-2019-q4-major/bin/../lib/gcc/arm-none-eabi/9.2.1/../../../../arm-none-eabi/lib/thumb/v7e-m/nofp\libc.a(lib_a-stdio.o) (_write_r)
c:/ti/ccs1220/ccs/tools/compiler/gcc-arm-none-eabi-9-2019-q4-major/bin/../lib/gcc/arm-none-eabi/9.2.1/../../../../arm-none-eabi/lib/thumb/v7e-m/nofp\libc.a(lib_a-__atexit.o)
                              c:/ti/ccs1220/ccs/tools/compiler/gcc-arm-none-eabi-9-2019-q4-major/bin/../lib/gcc/arm-none-eabi/9.2.1/../../../../arm-none-eabi/lib/thumb/v7e-m/nofp\libc.a(lib_a-atexit.o) (__register_exitproc)
c:/ti/ccs1220/ccs/tools/compiler/gcc-arm-none-eabi-9-2019-q4-major/bin/../lib/gcc/arm-none-eabi/9.2.1/../../../../arm-none-eabi/lib/thumb/v7e-m/nofp\libc.a(lib_a-callocr.o)
                              c:/ti/ccs1220/ccs/tools/compiler/gcc-arm-none-eabi-9-2019-q4-major/bin/../lib/gcc/arm-none-eabi/9.2.1/../../../../arm-none-eabi/lib/thumb/v7e-m/nofp\libc.a(lib_a-mprec.o) (_calloc_r)
c:/ti/ccs1220/ccs/tools/compiler/gcc-arm-none-eabi-9-2019-q4-major/bin/../lib/gcc/arm-none-eabi/9.2.1/../../../../arm-none-eabi/lib/thumb/v7e-m/nofp\libc.a(lib_a-closer.o)
                              c:/ti/ccs1220/ccs/tools/compiler/gcc-arm-none-eabi-9-2019-q4-major/bin/../lib/gcc/arm-none-eabi/9.2.1/../../../../arm-none-eabi/lib/thumb/v7e-m/nofp\libc.a(lib_a-stdio.o) (_close_r)
c:/ti/ccs1220/ccs/tools/compiler/gcc-arm-none-eabi-9-2019-q4-major/bin/../lib/gcc/arm-none-eabi/9.2.1/../../../../arm-none-eabi/lib/thumb/v7e-m/nofp\libc.a(lib_a-fclose.o)
                              c:/ti/ccs1220/ccs/tools/compiler/gcc-arm-none-eabi-9-2019-q4-major/bin/../lib/gcc/arm-none-eabi/9.2.1/../../../../arm-none-eabi/lib/thumb/v7e-m/nofp\libc.a(lib_a-findfp.o) (_fclose_r)
c:/ti/ccs1220/ccs/tools/compiler/gcc-arm-none-eabi-9-2019-q4-major/bin/../lib/gcc/arm-none-eabi/9.2.1/../../../../arm-none-eabi/lib/thumb/v7e-m/nofp\libc.a(lib_a-fputwc.o)
                              c:/ti/ccs1220/ccs/tools/compiler/gcc-arm-none-eabi-9-2019-q4-major/bin/../lib/gcc/arm-none-eabi/9.2.1/../../../../arm-none-eabi/lib/thumb/v7e-m/nofp\libc.a(lib_a-vfiprintf.o) (_fputwc_r)
c:/ti/ccs1220/ccs/tools/compiler/gcc-arm-none-eabi-9-2019-q4-major/bin/../lib/gcc/arm-none-eabi/9.2.1/../../../../arm-none-eabi/lib/thumb/v7e-m/nofp\libc.a(lib_a-fstatr.o)
                              c:/ti/ccs1220/ccs/tools/compiler/gcc-arm-none-eabi-9-2019-q4-major/bin/../lib/gcc/arm-none-eabi/9.2.1/../../../../arm-none-eabi/lib/thumb/v7e-m/nofp\libc.a(lib_a-makebuf.o) (_fstat_r)
c:/ti/ccs1220/ccs/tools/compiler/gcc-arm-none-eabi-9-2019-q4-major/bin/../lib/gcc/arm-none-eabi/9.2.1/../../../../arm-none-eabi/lib/thumb/v7e-m/nofp\libc.a(lib_a-isattyr.o)
                              c:/ti/ccs1220/ccs/tools/compiler/gcc-arm-none-eabi-9-2019-q4-major/bin/../lib/gcc/arm-none-eabi/9.2.1/../../../../arm-none-eabi/lib/thumb/v7e-m/nofp\libc.a(lib_a-makebuf.o) (_isatty_r)
c:/ti/ccs1220/ccs/tools/compiler/gcc-arm-none-eabi-9-2019-q4-major/bin/../lib/gcc/arm-none-eabi/9.2.1/../../../../arm-none-eabi/lib/thumb/v7e-m/nofp\libc.a(lib_a-locale.o)
                              c:/ti/ccs1220/ccs/tools/compiler/gcc-arm-none-eabi-9-2019-q4-major/bin/../lib/gcc/arm-none-eabi/9.2.1/../../../../arm-none-eabi/lib/thumb/v7e-m/nofp\libc.a(lib_a-fputwc.o) (__locale_mb_cur_max)
c:/ti/ccs1220/ccs/tools/compiler/gcc-arm-none-eabi-9-2019-q4-major/bin/../lib/gcc/arm-none-eabi/9.2.1/../../../../arm-none-eabi/lib/thumb/v7e-m/nofp\libc.a(lib_a-lseekr.o)
                              c:/ti/ccs1220/ccs/tools/compiler/gcc-arm-none-eabi-9-2019-q4-major/bin/../lib/gcc/arm-none-eabi/9.2.1/../../../../arm-none-eabi/lib/thumb/v7e-m/nofp\libc.a(lib_a-stdio.o) (_lseek_r)
c:/ti/ccs1220/ccs/tools/compiler/gcc-arm-none-eabi-9-2019-q4-major/bin/../lib/gcc/arm-none-eabi/9.2.1/../../../../arm-none-eabi/lib/thumb/v7e-m/nofp\libc.a(lib_a-mbtowc_r.o)
                              c:/ti/ccs1220/ccs/tools/compiler/gcc-arm-none-eabi-9-2019-q4-major/bin/../lib/gcc/arm-none-eabi/9.2.1/../../../../arm-none-eabi/lib/thumb/v7e-m/nofp\libc.a(lib_a-locale.o) (__ascii_mbtowc)
c:/ti/ccs1220/ccs/tools/compiler/gcc-arm-none-eabi-9-2019-q4-major/bin/../lib/gcc/arm-none-eabi/9.2.1/../../../../arm-none-eabi/lib/thumb/v7e-m/nofp\libc.a(lib_a-readr.o)
                              c:/ti/ccs1220/ccs/tools/compiler/gcc-arm-none-eabi-9-2019-q4-major/bin/../lib/gcc/arm-none-eabi/9.2.1/../../../../arm-none-eabi/lib/thumb/v7e-m/nofp\libc.a(lib_a-stdio.o) (_read_r)
c:/ti/ccs1220/ccs/tools/compiler/gcc-arm-none-eabi-9-2019-q4-major/bin/../lib/gcc/arm-none-eabi/9.2.1/../../../../arm-none-eabi/lib/thumb/v7e-m/nofp\libc.a(lib_a-reent.o)
                              c:/ti/ccs1220/ccs/tools/compiler/gcc-arm-none-eabi-9-2019-q4-major/bin/../lib/gcc/arm-none-eabi/9.2.1/../../../../arm-none-eabi/lib/thumb/v7e-m/nofp\libc.a(lib_a-sbrkr.o) (errno)
c:/ti/ccs1220/ccs/tools/compiler/gcc-arm-none-eabi-9-2019-q4-major/bin/../lib/gcc/arm-none-eabi/9.2.1/../../../../arm-none-eabi/lib/thumb/v7e-m/nofp\libc.a(lib_a-strcmp.o)
                              c:/ti/ccs1220/ccs/tools/compiler/gcc-arm-none-eabi-9-2019-q4-major/bin/../lib/gcc/arm-none-eabi/9.2.1/../../../../arm-none-eabi/lib/thumb/v7e-m/nofp\libc.a(lib_a-locale.o) (strcmp)
c:/ti/ccs1220/ccs/tools/compiler/gcc-arm-none-eabi-9-2019-q4-major/bin/../lib/gcc/arm-none-eabi/9.2.1/../../../../arm-none-eabi/lib/thumb/v7e-m/nofp\libc.a(lib_a-wbuf.o)
                              c:/ti/ccs1220/ccs/tools/compiler/gcc-arm-none-eabi-9-2019-q4-major/bin/../lib/gcc/arm-none-eabi/9.2.1/../../../../arm-none-eabi/lib/thumb/v7e-m/nofp\libc.a(lib_a-fputwc.o) (__swbuf_r)
c:/ti/ccs1220/ccs/tools/compiler/gcc-arm-none-eabi-9-2019-q4-major/bin/../lib/gcc/arm-none-eabi/9.2.1/../../../../arm-none-eabi/lib/thumb/v7e-m/nofp\libc.a(lib_a-wcrtomb.o)
                              c:/ti/ccs1220/ccs/tools/compiler/gcc-arm-none-eabi-9-2019-q4-major/bin/../lib/gcc/arm-none-eabi/9.2.1/../../../../arm-none-eabi/lib/thumb/v7e-m/nofp\libc.a(lib_a-fputwc.o) (_wcrtomb_r)
c:/ti/ccs1220/ccs/tools/compiler/gcc-arm-none-eabi-9-2019-q4-major/bin/../lib/gcc/arm-none-eabi/9.2.1/../../../../arm-none-eabi/lib/thumb/v7e-m/nofp\libc.a(lib_a-wctomb_r.o)
                              c:/ti/ccs1220/ccs/tools/compiler/gcc-arm-none-eabi-9-2019-q4-major/bin/../lib/gcc/arm-none-eabi/9.2.1/../../../../arm-none-eabi/lib/thumb/v7e-m/nofp\libc.a(lib_a-locale.o) (__ascii_wctomb)
c:/ti/ccs1220/ccs/tools/compiler/gcc-arm-none-eabi-9-2019-q4-major/bin/../lib/gcc/arm-none-eabi/9.2.1/../../../../arm-none-eabi/lib/thumb/v7e-m/nofp\libc.a(lib_a-ctype_.o)
                              c:/ti/ccs1220/ccs/tools/compiler/gcc-arm-none-eabi-9-2019-q4-major/bin/../lib/gcc/arm-none-eabi/9.2.1/../../../../arm-none-eabi/lib/thumb/v7e-m/nofp\libc.a(lib_a-locale.o) (_ctype_)
c:/ti/ccs1220/ccs/tools/compiler/gcc-arm-none-eabi-9-2019-q4-major/bin/../lib/gcc/arm-none-eabi/9.2.1/thumb/v7e-m/nofp\libgcc.a(_arm_muldf3.o)
                              c:/ti/ccs1220/ccs/tools/compiler/gcc-arm-none-eabi-9-2019-q4-major/bin/../lib/gcc/arm-none-eabi/9.2.1/../../../../arm-none-eabi/lib/thumb/v7e-m/nofp\libc.a(lib_a-vfprintf.o) (__aeabi_dmul)
c:/ti/ccs1220/ccs/tools/compiler/gcc-arm-none-eabi-9-2019-q4-major/bin/../lib/gcc/arm-none-eabi/9.2.1/thumb/v7e-m/nofp\libgcc.a(_arm_addsubdf3.o)
                              ./Source/Driver/UART/UART.o (__aeabi_dsub)
c:/ti/ccs1220/ccs/tools/compiler/gcc-arm-none-eabi-9-2019-q4-major/bin/../lib/gcc/arm-none-eabi/9.2.1/thumb/v7e-m/nofp\libgcc.a(_arm_muldivdf3.o)
                              ./Source/Driver/UART/UART.o (__aeabi_ddiv)
c:/ti/ccs1220/ccs/tools/compiler/gcc-arm-none-eabi-9-2019-q4-major/bin/../lib/gcc/arm-none-eabi/9.2.1/thumb/v7e-m/nofp\libgcc.a(_arm_cmpdf2.o)
                              c:/ti/ccs1220/ccs/tools/compiler/gcc-arm-none-eabi-9-2019-q4-major/bin/../lib/gcc/arm-none-eabi/9.2.1/../../../../arm-none-eabi/lib/thumb/v7e-m/nofp\libc.a(lib_a-vfprintf.o) (__aeabi_dcmpeq)
c:/ti/ccs1220/ccs/tools/compiler/gcc-arm-none-eabi-9-2019-q4-major/bin/../lib/gcc/arm-none-eabi/9.2.1/thumb/v7e-m/nofp\libgcc.a(_arm_unorddf2.o)
                              c:/ti/ccs1220/ccs/tools/compiler/gcc-arm-none-eabi-9-2019-q4-major/bin/../lib/gcc/arm-none-eabi/9.2.1/../../../../arm-none-eabi/lib/thumb/v7e-m/nofp\libc.a(lib_a-vfprintf.o) (__aeabi_dcmpun)
c:/ti/ccs1220/ccs/tools/compiler/gcc-arm-none-eabi-9-2019-q4-major/bin/../lib/gcc/arm-none-eabi/9.2.1/thumb/v7e-m/nofp\libgcc.a(_arm_fixdfsi.o)
                              c:/ti/ccs1220/ccs/tools/compiler/gcc-arm-none-eabi-9-2019-q4-major/bin/../lib/gcc/arm-none-eabi/9.2.1/../../../../arm-none-eabi/lib/thumb/v7e-m/nofp\libc.a(lib_a-vfprintf.o) (__aeabi_d2iz)
c:/ti/ccs1220/ccs/tools/compiler/gcc-arm-none-eabi-9-2019-q4-major/bin/../lib/gcc/arm-none-eabi/9.2.1/thumb/v7e-m/nofp\libgcc.a(_arm_truncdfsf2.o)
                              ./Source/Driver/UART/UART.o (__aeabi_d2f)
c:/ti/ccs1220/ccs/tools/compiler/gcc-arm-none-eabi-9-2019-q4-major/bin/../lib/gcc/arm-none-eabi/9.2.1/thumb/v7e-m/nofp\libgcc.a(_aeabi_uldivmod.o)
                              c:/ti/ccs1220/ccs/tools/compiler/gcc-arm-none-eabi-9-2019-q4-major/bin/../lib/gcc/arm-none-eabi/9.2.1/../../../../arm-none-eabi/lib/thumb/v7e-m/nofp\libc.a(lib_a-vfprintf.o) (__aeabi_uldivmod)
c:/ti/ccs1220/ccs/tools/compiler/gcc-arm-none-eabi-9-2019-q4-major/bin/../lib/gcc/arm-none-eabi/9.2.1/thumb/v7e-m/nofp\libgcc.a(_udivmoddi4.o)
                              c:/ti/ccs1220/ccs/tools/compiler/gcc-arm-none-eabi-9-2019-q4-major/bin/../lib/gcc/arm-none-eabi/9.2.1/thumb/v7e-m/nofp\libgcc.a(_aeabi_uldivmod.o) (__udivmoddi4)
c:/ti/ccs1220/ccs/tools/compiler/gcc-arm-none-eabi-9-2019-q4-major/bin/../lib/gcc/arm-none-eabi/9.2.1/thumb/v7e-m/nofp\libgcc.a(_dvmd_tls.o)
                              c:/ti/ccs1220/ccs/tools/compiler/gcc-arm-none-eabi-9-2019-q4-major/bin/../lib/gcc/arm-none-eabi/9.2.1/thumb/v7e-m/nofp\libgcc.a(_aeabi_uldivmod.o) (__aeabi_ldiv0)
c:/ti/ccs1220/ccs/tools/compiler/gcc-arm-none-eabi-9-2019-q4-major/bin/../lib/gcc/arm-none-eabi/9.2.1/../../../../arm-none-eabi/lib/thumb/v7e-m/nofp\libnosys.a(close.o)
                              c:/ti/ccs1220/ccs/tools/compiler/gcc-arm-none-eabi-9-2019-q4-major/bin/../lib/gcc/arm-none-eabi/9.2.1/../../../../arm-none-eabi/lib/thumb/v7e-m/nofp\libc.a(lib_a-closer.o) (_close)
c:/ti/ccs1220/ccs/tools/compiler/gcc-arm-none-eabi-9-2019-q4-major/bin/../lib/gcc/arm-none-eabi/9.2.1/../../../../arm-none-eabi/lib/thumb/v7e-m/nofp\libnosys.a(fstat.o)
                              c:/ti/ccs1220/ccs/tools/compiler/gcc-arm-none-eabi-9-2019-q4-major/bin/../lib/gcc/arm-none-eabi/9.2.1/../../../../arm-none-eabi/lib/thumb/v7e-m/nofp\libc.a(lib_a-fstatr.o) (_fstat)
c:/ti/ccs1220/ccs/tools/compiler/gcc-arm-none-eabi-9-2019-q4-major/bin/../lib/gcc/arm-none-eabi/9.2.1/../../../../arm-none-eabi/lib/thumb/v7e-m/nofp\libnosys.a(isatty.o)
                              c:/ti/ccs1220/ccs/tools/compiler/gcc-arm-none-eabi-9-2019-q4-major/bin/../lib/gcc/arm-none-eabi/9.2.1/../../../../arm-none-eabi/lib/thumb/v7e-m/nofp\libc.a(lib_a-isattyr.o) (_isatty)
c:/ti/ccs1220/ccs/tools/compiler/gcc-arm-none-eabi-9-2019-q4-major/bin/../lib/gcc/arm-none-eabi/9.2.1/../../../../arm-none-eabi/lib/thumb/v7e-m/nofp\libnosys.a(lseek.o)
                              c:/ti/ccs1220/ccs/tools/compiler/gcc-arm-none-eabi-9-2019-q4-major/bin/../lib/gcc/arm-none-eabi/9.2.1/../../../../arm-none-eabi/lib/thumb/v7e-m/nofp\libc.a(lib_a-lseekr.o) (_lseek)
c:/ti/ccs1220/ccs/tools/compiler/gcc-arm-none-eabi-9-2019-q4-major/bin/../lib/gcc/arm-none-eabi/9.2.1/../../../../arm-none-eabi/lib/thumb/v7e-m/nofp\libnosys.a(read.o)
                              c:/ti/ccs1220/ccs/tools/compiler/gcc-arm-none-eabi-9-2019-q4-major/bin/../lib/gcc/arm-none-eabi/9.2.1/../../../../arm-none-eabi/lib/thumb/v7e-m/nofp\libc.a(lib_a-readr.o) (_read)
c:/ti/ccs1220/ccs/tools/compiler/gcc-arm-none-eabi-9-2019-q4-major/bin/../lib/gcc/arm-none-eabi/9.2.1/../../../../arm-none-eabi/lib/thumb/v7e-m/nofp\libnosys.a(sbrk.o)
                              c:/ti/ccs1220/ccs/tools/compiler/gcc-arm-none-eabi-9-2019-q4-major/bin/../lib/gcc/arm-none-eabi/9.2.1/../../../../arm-none-eabi/lib/thumb/v7e-m/nofp\libc.a(lib_a-sbrkr.o) (_sbrk)
c:/ti/ccs1220/ccs/tools/compiler/gcc-arm-none-eabi-9-2019-q4-major/bin/../lib/gcc/arm-none-eabi/9.2.1/../../../../arm-none-eabi/lib/thumb/v7e-m/nofp\libnosys.a(write.o)
                              c:/ti/ccs1220/ccs/tools/compiler/gcc-arm-none-eabi-9-2019-q4-major/bin/../lib/gcc/arm-none-eabi/9.2.1/../../../../arm-none-eabi/lib/thumb/v7e-m/nofp\libc.a(lib_a-writer.o) (_write)
c:/ti/ccs1220/ccs/tools/compiler/gcc-arm-none-eabi-9-2019-q4-major/bin/../lib/gcc/arm-none-eabi/9.2.1/../../../../arm-none-eabi/lib/thumb/v7e-m/nofp\libnosys.a(_exit.o)
                              c:/ti/ccs1220/ccs/tools/compiler/gcc-arm-none-eabi-9-2019-q4-major/bin/../lib/gcc/arm-none-eabi/9.2.1/../../../../arm-none-eabi/lib/thumb/v7e-m/nofp\libc.a(lib_a-exit.o) (_exit)

Allocating common symbols
Common symbol       size              file

D5_data             0x1               ./Source/Driver/LCD/LCD.o
__lock___atexit_recursive_mutex
                    0x1               c:/ti/ccs1220/ccs/tools/compiler/gcc-arm-none-eabi-9-2019-q4-major/bin/../lib/gcc/arm-none-eabi/9.2.1/../../../../arm-none-eabi/lib/thumb/v7e-m/nofp\libc.a(lib_a-lock.o)
EN                  0x1               ./Source/Driver/LCD/LCD.o
D6_data             0x1               ./Source/Driver/LCD/LCD.o
__lock___arc4random_mutex
                    0x1               c:/ti/ccs1220/ccs/tools/compiler/gcc-arm-none-eabi-9-2019-q4-major/bin/../lib/gcc/arm-none-eabi/9.2.1/../../../../arm-none-eabi/lib/thumb/v7e-m/nofp\libc.a(lib_a-lock.o)
D2_data             0x1               ./Source/Driver/LCD/LCD.o
errno               0x4               c:/ti/ccs1220/ccs/tools/compiler/gcc-arm-none-eabi-9-2019-q4-major/bin/../lib/gcc/arm-none-eabi/9.2.1/../../../../arm-none-eabi/lib/thumb/v7e-m/nofp\libc.a(lib_a-reent.o)
ssd1306_buffer      0x400             ./Source/Middleware/OLED_SSD1306/SSD1306.o
xQueueRegistry      0x40              ./Source/FreeRtos/queue.o
temp                0x4               ./Source/Driver/UART/UART.o
D1_data             0x1               ./Source/Driver/LCD/LCD.o
__lock___env_recursive_mutex
                    0x1               c:/ti/ccs1220/ccs/tools/compiler/gcc-arm-none-eabi-9-2019-q4-major/bin/../lib/gcc/arm-none-eabi/9.2.1/../../../../arm-none-eabi/lib/thumb/v7e-m/nofp\libc.a(lib_a-lock.o)
__lock___sinit_recursive_mutex
                    0x1               c:/ti/ccs1220/ccs/tools/compiler/gcc-arm-none-eabi-9-2019-q4-major/bin/../lib/gcc/arm-none-eabi/9.2.1/../../../../arm-none-eabi/lib/thumb/v7e-m/nofp\libc.a(lib_a-lock.o)
D3_data             0x1               ./Source/Driver/LCD/LCD.o
__lock___malloc_recursive_mutex
                    0x1               c:/ti/ccs1220/ccs/tools/compiler/gcc-arm-none-eabi-9-2019-q4-major/bin/../lib/gcc/arm-none-eabi/9.2.1/../../../../arm-none-eabi/lib/thumb/v7e-m/nofp\libc.a(lib_a-lock.o)
D7_data             0x1               ./Source/Driver/LCD/LCD.o
D4_data             0x1               ./Source/Driver/LCD/LCD.o
D5                  0x1               ./Source/Driver/LCD/LCD.o
D4                  0x1               ./Source/Driver/LCD/LCD.o
__lock___at_quick_exit_mutex
                    0x1               c:/ti/ccs1220/ccs/tools/compiler/gcc-arm-none-eabi-9-2019-q4-major/bin/../lib/gcc/arm-none-eabi/9.2.1/../../../../arm-none-eabi/lib/thumb/v7e-m/nofp\libc.a(lib_a-lock.o)
__lock___dd_hash_mutex
                    0x1               c:/ti/ccs1220/ccs/tools/compiler/gcc-arm-none-eabi-9-2019-q4-major/bin/../lib/gcc/arm-none-eabi/9.2.1/../../../../arm-none-eabi/lib/thumb/v7e-m/nofp\libc.a(lib_a-lock.o)
__lock___tz_mutex   0x1               c:/ti/ccs1220/ccs/tools/compiler/gcc-arm-none-eabi-9-2019-q4-major/bin/../lib/gcc/arm-none-eabi/9.2.1/../../../../arm-none-eabi/lib/thumb/v7e-m/nofp\libc.a(lib_a-lock.o)
D7                  0x1               ./Source/Driver/LCD/LCD.o
RS                  0x1               ./Source/Driver/LCD/LCD.o
D6                  0x1               ./Source/Driver/LCD/LCD.o
__lock___sfp_recursive_mutex
                    0x1               c:/ti/ccs1220/ccs/tools/compiler/gcc-arm-none-eabi-9-2019-q4-major/bin/../lib/gcc/arm-none-eabi/9.2.1/../../../../arm-none-eabi/lib/thumb/v7e-m/nofp\libc.a(lib_a-lock.o)
D0_data             0x1               ./Source/Driver/LCD/LCD.o

Discarded input sections

 .debug_frame   0x00000000       0x28 c:/ti/ccs1220/ccs/tools/compiler/gcc-arm-none-eabi-9-2019-q4-major/bin/../lib/gcc/arm-none-eabi/9.2.1/../../../../arm-none-eabi/lib/thumb/v7e-m/nofp\libc.a(lib_a-exit.o)
 .ARM.attributes
                0x00000000       0x2e c:/ti/ccs1220/ccs/tools/compiler/gcc-arm-none-eabi-9-2019-q4-major/bin/../lib/gcc/arm-none-eabi/9.2.1/../../../../arm-none-eabi/lib/thumb/v7e-m/nofp\libc.a(lib_a-exit.o)
 .ARM.attributes
                0x00000000       0x2e c:/ti/ccs1220/ccs/tools/compiler/gcc-arm-none-eabi-9-2019-q4-major/bin/../lib/gcc/arm-none-eabi/9.2.1/../../../../arm-none-eabi/lib/thumb/v7e-m/nofp\libc.a(lib_a-impure.o)
 .debug_frame   0x00000000       0x2c c:/ti/ccs1220/ccs/tools/compiler/gcc-arm-none-eabi-9-2019-q4-major/bin/../lib/gcc/arm-none-eabi/9.2.1/../../../../arm-none-eabi/lib/thumb/v7e-m/nofp\libc.a(lib_a-init.o)
 .ARM.attributes
                0x00000000       0x2e c:/ti/ccs1220/ccs/tools/compiler/gcc-arm-none-eabi-9-2019-q4-major/bin/../lib/gcc/arm-none-eabi/9.2.1/../../../../arm-none-eabi/lib/thumb/v7e-m/nofp\libc.a(lib_a-init.o)
 .ARM.attributes
                0x00000000       0x1c c:/ti/ccs1220/ccs/tools/compiler/gcc-arm-none-eabi-9-2019-q4-major/bin/../lib/gcc/arm-none-eabi/9.2.1/../../../../arm-none-eabi/lib/thumb/v7e-m/nofp\libc.a(lib_a-memcpy.o)
 .debug_frame   0x00000000       0x38 c:/ti/ccs1220/ccs/tools/compiler/gcc-arm-none-eabi-9-2019-q4-major/bin/../lib/gcc/arm-none-eabi/9.2.1/../../../../arm-none-eabi/lib/thumb/v7e-m/nofp\libc.a(lib_a-memset.o)
 .ARM.attributes
                0x00000000       0x2e c:/ti/ccs1220/ccs/tools/compiler/gcc-arm-none-eabi-9-2019-q4-major/bin/../lib/gcc/arm-none-eabi/9.2.1/../../../../arm-none-eabi/lib/thumb/v7e-m/nofp\libc.a(lib_a-memset.o)
 .debug_frame   0x00000000       0x74 c:/ti/ccs1220/ccs/tools/compiler/gcc-arm-none-eabi-9-2019-q4-major/bin/../lib/gcc/arm-none-eabi/9.2.1/../../../../arm-none-eabi/lib/thumb/v7e-m/nofp\libc.a(lib_a-printf.o)
 .ARM.attributes
                0x00000000       0x2e c:/ti/ccs1220/ccs/tools/compiler/gcc-arm-none-eabi-9-2019-q4-major/bin/../lib/gcc/arm-none-eabi/9.2.1/../../../../arm-none-eabi/lib/thumb/v7e-m/nofp\libc.a(lib_a-printf.o)
 .debug_frame   0x00000000       0x4c c:/ti/ccs1220/ccs/tools/compiler/gcc-arm-none-eabi-9-2019-q4-major/bin/../lib/gcc/arm-none-eabi/9.2.1/../../../../arm-none-eabi/lib/thumb/v7e-m/nofp\libc.a(lib_a-puts.o)
 .ARM.attributes
                0x00000000       0x2e c:/ti/ccs1220/ccs/tools/compiler/gcc-arm-none-eabi-9-2019-q4-major/bin/../lib/gcc/arm-none-eabi/9.2.1/../../../../arm-none-eabi/lib/thumb/v7e-m/nofp\libc.a(lib_a-puts.o)
 .ARM.attributes
                0x00000000       0x1c c:/ti/ccs1220/ccs/tools/compiler/gcc-arm-none-eabi-9-2019-q4-major/bin/../lib/gcc/arm-none-eabi/9.2.1/../../../../arm-none-eabi/lib/thumb/v7e-m/nofp\libc.a(lib_a-strlen.o)
 .debug_frame   0x00000000       0x8c c:/ti/ccs1220/ccs/tools/compiler/gcc-arm-none-eabi-9-2019-q4-major/bin/../lib/gcc/arm-none-eabi/9.2.1/../../../../arm-none-eabi/lib/thumb/v7e-m/nofp\libc.a(lib_a-vfprintf.o)
 .ARM.attributes
                0x00000000       0x2e c:/ti/ccs1220/ccs/tools/compiler/gcc-arm-none-eabi-9-2019-q4-major/bin/../lib/gcc/arm-none-eabi/9.2.1/../../../../arm-none-eabi/lib/thumb/v7e-m/nofp\libc.a(lib_a-vfprintf.o)
 .debug_frame   0x00000000       0x2c c:/ti/ccs1220/ccs/tools/compiler/gcc-arm-none-eabi-9-2019-q4-major/bin/../lib/gcc/arm-none-eabi/9.2.1/../../../../arm-none-eabi/lib/thumb/v7e-m/nofp\libc.a(lib_a-wsetup.o)
 .ARM.attributes
                0x00000000       0x2e c:/ti/ccs1220/ccs/tools/compiler/gcc-arm-none-eabi-9-2019-q4-major/bin/../lib/gcc/arm-none-eabi/9.2.1/../../../../arm-none-eabi/lib/thumb/v7e-m/nofp\libc.a(lib_a-wsetup.o)
 .debug_frame   0x00000000       0x5c c:/ti/ccs1220/ccs/tools/compiler/gcc-arm-none-eabi-9-2019-q4-major/bin/../lib/gcc/arm-none-eabi/9.2.1/../../../../arm-none-eabi/lib/thumb/v7e-m/nofp\libc.a(lib_a-__call_atexit.o)
 .ARM.attributes
                0x00000000       0x2e c:/ti/ccs1220/ccs/tools/compiler/gcc-arm-none-eabi-9-2019-q4-major/bin/../lib/gcc/arm-none-eabi/9.2.1/../../../../arm-none-eabi/lib/thumb/v7e-m/nofp\libc.a(lib_a-__call_atexit.o)
 .debug_frame   0x00000000       0x20 c:/ti/ccs1220/ccs/tools/compiler/gcc-arm-none-eabi-9-2019-q4-major/bin/../lib/gcc/arm-none-eabi/9.2.1/../../../../arm-none-eabi/lib/thumb/v7e-m/nofp\libc.a(lib_a-atexit.o)
 .ARM.attributes
                0x00000000       0x2e c:/ti/ccs1220/ccs/tools/compiler/gcc-arm-none-eabi-9-2019-q4-major/bin/../lib/gcc/arm-none-eabi/9.2.1/../../../../arm-none-eabi/lib/thumb/v7e-m/nofp\libc.a(lib_a-atexit.o)
 .debug_frame   0x00000000       0x8c c:/ti/ccs1220/ccs/tools/compiler/gcc-arm-none-eabi-9-2019-q4-major/bin/../lib/gcc/arm-none-eabi/9.2.1/../../../../arm-none-eabi/lib/thumb/v7e-m/nofp\libc.a(lib_a-dtoa.o)
 .ARM.attributes
                0x00000000       0x2e c:/ti/ccs1220/ccs/tools/compiler/gcc-arm-none-eabi-9-2019-q4-major/bin/../lib/gcc/arm-none-eabi/9.2.1/../../../../arm-none-eabi/lib/thumb/v7e-m/nofp\libc.a(lib_a-dtoa.o)
 .debug_frame   0x00000000       0x5c c:/ti/ccs1220/ccs/tools/compiler/gcc-arm-none-eabi-9-2019-q4-major/bin/../lib/gcc/arm-none-eabi/9.2.1/../../../../arm-none-eabi/lib/thumb/v7e-m/nofp\libc.a(lib_a-fflush.o)
 .ARM.attributes
                0x00000000       0x2e c:/ti/ccs1220/ccs/tools/compiler/gcc-arm-none-eabi-9-2019-q4-major/bin/../lib/gcc/arm-none-eabi/9.2.1/../../../../arm-none-eabi/lib/thumb/v7e-m/nofp\libc.a(lib_a-fflush.o)
 .debug_frame   0x00000000      0x14c c:/ti/ccs1220/ccs/tools/compiler/gcc-arm-none-eabi-9-2019-q4-major/bin/../lib/gcc/arm-none-eabi/9.2.1/../../../../arm-none-eabi/lib/thumb/v7e-m/nofp\libc.a(lib_a-findfp.o)
 .ARM.attributes
                0x00000000       0x2e c:/ti/ccs1220/ccs/tools/compiler/gcc-arm-none-eabi-9-2019-q4-major/bin/../lib/gcc/arm-none-eabi/9.2.1/../../../../arm-none-eabi/lib/thumb/v7e-m/nofp\libc.a(lib_a-findfp.o)
 .debug_frame   0x00000000       0x34 c:/ti/ccs1220/ccs/tools/compiler/gcc-arm-none-eabi-9-2019-q4-major/bin/../lib/gcc/arm-none-eabi/9.2.1/../../../../arm-none-eabi/lib/thumb/v7e-m/nofp\libc.a(lib_a-fini.o)
 .ARM.attributes
                0x00000000       0x2e c:/ti/ccs1220/ccs/tools/compiler/gcc-arm-none-eabi-9-2019-q4-major/bin/../lib/gcc/arm-none-eabi/9.2.1/../../../../arm-none-eabi/lib/thumb/v7e-m/nofp\libc.a(lib_a-fini.o)
 .debug_frame   0x00000000       0x8c c:/ti/ccs1220/ccs/tools/compiler/gcc-arm-none-eabi-9-2019-q4-major/bin/../lib/gcc/arm-none-eabi/9.2.1/../../../../arm-none-eabi/lib/thumb/v7e-m/nofp\libc.a(lib_a-freer.o)
 .ARM.attributes
                0x00000000       0x2e c:/ti/ccs1220/ccs/tools/compiler/gcc-arm-none-eabi-9-2019-q4-major/bin/../lib/gcc/arm-none-eabi/9.2.1/../../../../arm-none-eabi/lib/thumb/v7e-m/nofp\libc.a(lib_a-freer.o)
 .debug_frame   0x00000000       0x64 c:/ti/ccs1220/ccs/tools/compiler/gcc-arm-none-eabi-9-2019-q4-major/bin/../lib/gcc/arm-none-eabi/9.2.1/../../../../arm-none-eabi/lib/thumb/v7e-m/nofp\libc.a(lib_a-fvwrite.o)
 .ARM.attributes
                0x00000000       0x2e c:/ti/ccs1220/ccs/tools/compiler/gcc-arm-none-eabi-9-2019-q4-major/bin/../lib/gcc/arm-none-eabi/9.2.1/../../../../arm-none-eabi/lib/thumb/v7e-m/nofp\libc.a(lib_a-fvwrite.o)
 .debug_frame   0x00000000       0x54 c:/ti/ccs1220/ccs/tools/compiler/gcc-arm-none-eabi-9-2019-q4-major/bin/../lib/gcc/arm-none-eabi/9.2.1/../../../../arm-none-eabi/lib/thumb/v7e-m/nofp\libc.a(lib_a-fwalk.o)
 .ARM.attributes
                0x00000000       0x2e c:/ti/ccs1220/ccs/tools/compiler/gcc-arm-none-eabi-9-2019-q4-major/bin/../lib/gcc/arm-none-eabi/9.2.1/../../../../arm-none-eabi/lib/thumb/v7e-m/nofp\libc.a(lib_a-fwalk.o)
 .debug_frame   0x00000000       0x40 c:/ti/ccs1220/ccs/tools/compiler/gcc-arm-none-eabi-9-2019-q4-major/bin/../lib/gcc/arm-none-eabi/9.2.1/../../../../arm-none-eabi/lib/thumb/v7e-m/nofp\libc.a(lib_a-localeconv.o)
 .ARM.attributes
                0x00000000       0x2e c:/ti/ccs1220/ccs/tools/compiler/gcc-arm-none-eabi-9-2019-q4-major/bin/../lib/gcc/arm-none-eabi/9.2.1/../../../../arm-none-eabi/lib/thumb/v7e-m/nofp\libc.a(lib_a-localeconv.o)
 .debug_frame   0x00000000       0xb0 c:/ti/ccs1220/ccs/tools/compiler/gcc-arm-none-eabi-9-2019-q4-major/bin/../lib/gcc/arm-none-eabi/9.2.1/../../../../arm-none-eabi/lib/thumb/v7e-m/nofp\libc.a(lib_a-lock.o)
 .ARM.attributes
                0x00000000       0x2e c:/ti/ccs1220/ccs/tools/compiler/gcc-arm-none-eabi-9-2019-q4-major/bin/../lib/gcc/arm-none-eabi/9.2.1/../../../../arm-none-eabi/lib/thumb/v7e-m/nofp\libc.a(lib_a-lock.o)
 .debug_frame   0x00000000       0x6c c:/ti/ccs1220/ccs/tools/compiler/gcc-arm-none-eabi-9-2019-q4-major/bin/../lib/gcc/arm-none-eabi/9.2.1/../../../../arm-none-eabi/lib/thumb/v7e-m/nofp\libc.a(lib_a-makebuf.o)
 .ARM.attributes
                0x00000000       0x2e c:/ti/ccs1220/ccs/tools/compiler/gcc-arm-none-eabi-9-2019-q4-major/bin/../lib/gcc/arm-none-eabi/9.2.1/../../../../arm-none-eabi/lib/thumb/v7e-m/nofp\libc.a(lib_a-makebuf.o)
 .debug_frame   0x00000000       0x4c c:/ti/ccs1220/ccs/tools/compiler/gcc-arm-none-eabi-9-2019-q4-major/bin/../lib/gcc/arm-none-eabi/9.2.1/../../../../arm-none-eabi/lib/thumb/v7e-m/nofp\libc.a(lib_a-mallocr.o)
 .ARM.attributes
                0x00000000       0x2e c:/ti/ccs1220/ccs/tools/compiler/gcc-arm-none-eabi-9-2019-q4-major/bin/../lib/gcc/arm-none-eabi/9.2.1/../../../../arm-none-eabi/lib/thumb/v7e-m/nofp\libc.a(lib_a-mallocr.o)
 .ARM.attributes
                0x00000000       0x1c c:/ti/ccs1220/ccs/tools/compiler/gcc-arm-none-eabi-9-2019-q4-major/bin/../lib/gcc/arm-none-eabi/9.2.1/../../../../arm-none-eabi/lib/thumb/v7e-m/nofp\libc.a(lib_a-memchr.o)
 .debug_frame   0x00000000       0x40 c:/ti/ccs1220/ccs/tools/compiler/gcc-arm-none-eabi-9-2019-q4-major/bin/../lib/gcc/arm-none-eabi/9.2.1/../../../../arm-none-eabi/lib/thumb/v7e-m/nofp\libc.a(lib_a-memmove.o)
 .ARM.attributes
                0x00000000       0x2e c:/ti/ccs1220/ccs/tools/compiler/gcc-arm-none-eabi-9-2019-q4-major/bin/../lib/gcc/arm-none-eabi/9.2.1/../../../../arm-none-eabi/lib/thumb/v7e-m/nofp\libc.a(lib_a-memmove.o)
 .debug_frame   0x00000000       0x30 c:/ti/ccs1220/ccs/tools/compiler/gcc-arm-none-eabi-9-2019-q4-major/bin/../lib/gcc/arm-none-eabi/9.2.1/../../../../arm-none-eabi/lib/thumb/v7e-m/nofp\libc.a(lib_a-mlock.o)
 .ARM.attributes
                0x00000000       0x2e c:/ti/ccs1220/ccs/tools/compiler/gcc-arm-none-eabi-9-2019-q4-major/bin/../lib/gcc/arm-none-eabi/9.2.1/../../../../arm-none-eabi/lib/thumb/v7e-m/nofp\libc.a(lib_a-mlock.o)
 .debug_frame   0x00000000      0x25c c:/ti/ccs1220/ccs/tools/compiler/gcc-arm-none-eabi-9-2019-q4-major/bin/../lib/gcc/arm-none-eabi/9.2.1/../../../../arm-none-eabi/lib/thumb/v7e-m/nofp\libc.a(lib_a-mprec.o)
 .ARM.attributes
                0x00000000       0x2e c:/ti/ccs1220/ccs/tools/compiler/gcc-arm-none-eabi-9-2019-q4-major/bin/../lib/gcc/arm-none-eabi/9.2.1/../../../../arm-none-eabi/lib/thumb/v7e-m/nofp\libc.a(lib_a-mprec.o)
 .debug_frame   0x00000000       0x48 c:/ti/ccs1220/ccs/tools/compiler/gcc-arm-none-eabi-9-2019-q4-major/bin/../lib/gcc/arm-none-eabi/9.2.1/../../../../arm-none-eabi/lib/thumb/v7e-m/nofp\libc.a(lib_a-reallocr.o)
 .ARM.attributes
                0x00000000       0x2e c:/ti/ccs1220/ccs/tools/compiler/gcc-arm-none-eabi-9-2019-q4-major/bin/../lib/gcc/arm-none-eabi/9.2.1/../../../../arm-none-eabi/lib/thumb/v7e-m/nofp\libc.a(lib_a-reallocr.o)
 .debug_frame   0x00000000       0x30 c:/ti/ccs1220/ccs/tools/compiler/gcc-arm-none-eabi-9-2019-q4-major/bin/../lib/gcc/arm-none-eabi/9.2.1/../../../../arm-none-eabi/lib/thumb/v7e-m/nofp\libc.a(lib_a-s_frexp.o)
 .ARM.attributes
                0x00000000       0x2e c:/ti/ccs1220/ccs/tools/compiler/gcc-arm-none-eabi-9-2019-q4-major/bin/../lib/gcc/arm-none-eabi/9.2.1/../../../../arm-none-eabi/lib/thumb/v7e-m/nofp\libc.a(lib_a-s_frexp.o)
 .debug_frame   0x00000000       0x2c c:/ti/ccs1220/ccs/tools/compiler/gcc-arm-none-eabi-9-2019-q4-major/bin/../lib/gcc/arm-none-eabi/9.2.1/../../../../arm-none-eabi/lib/thumb/v7e-m/nofp\libc.a(lib_a-sbrkr.o)
 .ARM.attributes
                0x00000000       0x2e c:/ti/ccs1220/ccs/tools/compiler/gcc-arm-none-eabi-9-2019-q4-major/bin/../lib/gcc/arm-none-eabi/9.2.1/../../../../arm-none-eabi/lib/thumb/v7e-m/nofp\libc.a(lib_a-sbrkr.o)
 .debug_frame   0x00000000       0x8c c:/ti/ccs1220/ccs/tools/compiler/gcc-arm-none-eabi-9-2019-q4-major/bin/../lib/gcc/arm-none-eabi/9.2.1/../../../../arm-none-eabi/lib/thumb/v7e-m/nofp\libc.a(lib_a-stdio.o)
 .ARM.attributes
                0x00000000       0x2e c:/ti/ccs1220/ccs/tools/compiler/gcc-arm-none-eabi-9-2019-q4-major/bin/../lib/gcc/arm-none-eabi/9.2.1/../../../../arm-none-eabi/lib/thumb/v7e-m/nofp\libc.a(lib_a-stdio.o)
 .debug_frame   0x00000000       0x38 c:/ti/ccs1220/ccs/tools/compiler/gcc-arm-none-eabi-9-2019-q4-major/bin/../lib/gcc/arm-none-eabi/9.2.1/../../../../arm-none-eabi/lib/thumb/v7e-m/nofp\libc.a(lib_a-strncpy.o)
 .ARM.attributes
                0x00000000       0x2e c:/ti/ccs1220/ccs/tools/compiler/gcc-arm-none-eabi-9-2019-q4-major/bin/../lib/gcc/arm-none-eabi/9.2.1/../../../../arm-none-eabi/lib/thumb/v7e-m/nofp\libc.a(lib_a-strncpy.o)
 .debug_frame   0x00000000       0xd0 c:/ti/ccs1220/ccs/tools/compiler/gcc-arm-none-eabi-9-2019-q4-major/bin/../lib/gcc/arm-none-eabi/9.2.1/../../../../arm-none-eabi/lib/thumb/v7e-m/nofp\libc.a(lib_a-vfiprintf.o)
 .ARM.attributes
                0x00000000       0x2e c:/ti/ccs1220/ccs/tools/compiler/gcc-arm-none-eabi-9-2019-q4-major/bin/../lib/gcc/arm-none-eabi/9.2.1/../../../../arm-none-eabi/lib/thumb/v7e-m/nofp\libc.a(lib_a-vfiprintf.o)
 .debug_frame   0x00000000       0x2c c:/ti/ccs1220/ccs/tools/compiler/gcc-arm-none-eabi-9-2019-q4-major/bin/../lib/gcc/arm-none-eabi/9.2.1/../../../../arm-none-eabi/lib/thumb/v7e-m/nofp\libc.a(lib_a-writer.o)
 .ARM.attributes
                0x00000000       0x2e c:/ti/ccs1220/ccs/tools/compiler/gcc-arm-none-eabi-9-2019-q4-major/bin/../lib/gcc/arm-none-eabi/9.2.1/../../../../arm-none-eabi/lib/thumb/v7e-m/nofp\libc.a(lib_a-writer.o)
 .debug_frame   0x00000000       0x34 c:/ti/ccs1220/ccs/tools/compiler/gcc-arm-none-eabi-9-2019-q4-major/bin/../lib/gcc/arm-none-eabi/9.2.1/../../../../arm-none-eabi/lib/thumb/v7e-m/nofp\libc.a(lib_a-__atexit.o)
 .ARM.attributes
                0x00000000       0x2e c:/ti/ccs1220/ccs/tools/compiler/gcc-arm-none-eabi-9-2019-q4-major/bin/../lib/gcc/arm-none-eabi/9.2.1/../../../../arm-none-eabi/lib/thumb/v7e-m/nofp\libc.a(lib_a-__atexit.o)
 .debug_frame   0x00000000       0x28 c:/ti/ccs1220/ccs/tools/compiler/gcc-arm-none-eabi-9-2019-q4-major/bin/../lib/gcc/arm-none-eabi/9.2.1/../../../../arm-none-eabi/lib/thumb/v7e-m/nofp\libc.a(lib_a-callocr.o)
 .ARM.attributes
                0x00000000       0x2e c:/ti/ccs1220/ccs/tools/compiler/gcc-arm-none-eabi-9-2019-q4-major/bin/../lib/gcc/arm-none-eabi/9.2.1/../../../../arm-none-eabi/lib/thumb/v7e-m/nofp\libc.a(lib_a-callocr.o)
 .debug_frame   0x00000000       0x2c c:/ti/ccs1220/ccs/tools/compiler/gcc-arm-none-eabi-9-2019-q4-major/bin/../lib/gcc/arm-none-eabi/9.2.1/../../../../arm-none-eabi/lib/thumb/v7e-m/nofp\libc.a(lib_a-closer.o)
 .ARM.attributes
                0x00000000       0x2e c:/ti/ccs1220/ccs/tools/compiler/gcc-arm-none-eabi-9-2019-q4-major/bin/../lib/gcc/arm-none-eabi/9.2.1/../../../../arm-none-eabi/lib/thumb/v7e-m/nofp\libc.a(lib_a-closer.o)
 .debug_frame   0x00000000       0x3c c:/ti/ccs1220/ccs/tools/compiler/gcc-arm-none-eabi-9-2019-q4-major/bin/../lib/gcc/arm-none-eabi/9.2.1/../../../../arm-none-eabi/lib/thumb/v7e-m/nofp\libc.a(lib_a-fclose.o)
 .ARM.attributes
                0x00000000       0x2e c:/ti/ccs1220/ccs/tools/compiler/gcc-arm-none-eabi-9-2019-q4-major/bin/../lib/gcc/arm-none-eabi/9.2.1/../../../../arm-none-eabi/lib/thumb/v7e-m/nofp\libc.a(lib_a-fclose.o)
 .debug_frame   0x00000000       0x9c c:/ti/ccs1220/ccs/tools/compiler/gcc-arm-none-eabi-9-2019-q4-major/bin/../lib/gcc/arm-none-eabi/9.2.1/../../../../arm-none-eabi/lib/thumb/v7e-m/nofp\libc.a(lib_a-fputwc.o)
 .ARM.attributes
                0x00000000       0x2e c:/ti/ccs1220/ccs/tools/compiler/gcc-arm-none-eabi-9-2019-q4-major/bin/../lib/gcc/arm-none-eabi/9.2.1/../../../../arm-none-eabi/lib/thumb/v7e-m/nofp\libc.a(lib_a-fputwc.o)
 .debug_frame   0x00000000       0x2c c:/ti/ccs1220/ccs/tools/compiler/gcc-arm-none-eabi-9-2019-q4-major/bin/../lib/gcc/arm-none-eabi/9.2.1/../../../../arm-none-eabi/lib/thumb/v7e-m/nofp\libc.a(lib_a-fstatr.o)
 .ARM.attributes
                0x00000000       0x2e c:/ti/ccs1220/ccs/tools/compiler/gcc-arm-none-eabi-9-2019-q4-major/bin/../lib/gcc/arm-none-eabi/9.2.1/../../../../arm-none-eabi/lib/thumb/v7e-m/nofp\libc.a(lib_a-fstatr.o)
 .debug_frame   0x00000000       0x2c c:/ti/ccs1220/ccs/tools/compiler/gcc-arm-none-eabi-9-2019-q4-major/bin/../lib/gcc/arm-none-eabi/9.2.1/../../../../arm-none-eabi/lib/thumb/v7e-m/nofp\libc.a(lib_a-isattyr.o)
 .ARM.attributes
                0x00000000       0x2e c:/ti/ccs1220/ccs/tools/compiler/gcc-arm-none-eabi-9-2019-q4-major/bin/../lib/gcc/arm-none-eabi/9.2.1/../../../../arm-none-eabi/lib/thumb/v7e-m/nofp\libc.a(lib_a-isattyr.o)
 .debug_frame   0x00000000       0x54 c:/ti/ccs1220/ccs/tools/compiler/gcc-arm-none-eabi-9-2019-q4-major/bin/../lib/gcc/arm-none-eabi/9.2.1/../../../../arm-none-eabi/lib/thumb/v7e-m/nofp\libc.a(lib_a-locale.o)
 .ARM.attributes
                0x00000000       0x2e c:/ti/ccs1220/ccs/tools/compiler/gcc-arm-none-eabi-9-2019-q4-major/bin/../lib/gcc/arm-none-eabi/9.2.1/../../../../arm-none-eabi/lib/thumb/v7e-m/nofp\libc.a(lib_a-locale.o)
 .debug_frame   0x00000000       0x2c c:/ti/ccs1220/ccs/tools/compiler/gcc-arm-none-eabi-9-2019-q4-major/bin/../lib/gcc/arm-none-eabi/9.2.1/../../../../arm-none-eabi/lib/thumb/v7e-m/nofp\libc.a(lib_a-lseekr.o)
 .ARM.attributes
                0x00000000       0x2e c:/ti/ccs1220/ccs/tools/compiler/gcc-arm-none-eabi-9-2019-q4-major/bin/../lib/gcc/arm-none-eabi/9.2.1/../../../../arm-none-eabi/lib/thumb/v7e-m/nofp\libc.a(lib_a-lseekr.o)
 .debug_frame   0x00000000       0x4c c:/ti/ccs1220/ccs/tools/compiler/gcc-arm-none-eabi-9-2019-q4-major/bin/../lib/gcc/arm-none-eabi/9.2.1/../../../../arm-none-eabi/lib/thumb/v7e-m/nofp\libc.a(lib_a-mbtowc_r.o)
 .ARM.attributes
                0x00000000       0x2e c:/ti/ccs1220/ccs/tools/compiler/gcc-arm-none-eabi-9-2019-q4-major/bin/../lib/gcc/arm-none-eabi/9.2.1/../../../../arm-none-eabi/lib/thumb/v7e-m/nofp\libc.a(lib_a-mbtowc_r.o)
 .debug_frame   0x00000000       0x2c c:/ti/ccs1220/ccs/tools/compiler/gcc-arm-none-eabi-9-2019-q4-major/bin/../lib/gcc/arm-none-eabi/9.2.1/../../../../arm-none-eabi/lib/thumb/v7e-m/nofp\libc.a(lib_a-readr.o)
 .ARM.attributes
                0x00000000       0x2e c:/ti/ccs1220/ccs/tools/compiler/gcc-arm-none-eabi-9-2019-q4-major/bin/../lib/gcc/arm-none-eabi/9.2.1/../../../../arm-none-eabi/lib/thumb/v7e-m/nofp\libc.a(lib_a-readr.o)
 .debug_frame   0x00000000       0x60 c:/ti/ccs1220/ccs/tools/compiler/gcc-arm-none-eabi-9-2019-q4-major/bin/../lib/gcc/arm-none-eabi/9.2.1/../../../../arm-none-eabi/lib/thumb/v7e-m/nofp\libc.a(lib_a-reent.o)
 .ARM.attributes
                0x00000000       0x2e c:/ti/ccs1220/ccs/tools/compiler/gcc-arm-none-eabi-9-2019-q4-major/bin/../lib/gcc/arm-none-eabi/9.2.1/../../../../arm-none-eabi/lib/thumb/v7e-m/nofp\libc.a(lib_a-reent.o)
 .debug_frame   0x00000000       0x68 c:/ti/ccs1220/ccs/tools/compiler/gcc-arm-none-eabi-9-2019-q4-major/bin/../lib/gcc/arm-none-eabi/9.2.1/../../../../arm-none-eabi/lib/thumb/v7e-m/nofp\libc.a(lib_a-strcmp.o)
 .ARM.attributes
                0x00000000       0x1c c:/ti/ccs1220/ccs/tools/compiler/gcc-arm-none-eabi-9-2019-q4-major/bin/../lib/gcc/arm-none-eabi/9.2.1/../../../../arm-none-eabi/lib/thumb/v7e-m/nofp\libc.a(lib_a-strcmp.o)
 .debug_frame   0x00000000       0x40 c:/ti/ccs1220/ccs/tools/compiler/gcc-arm-none-eabi-9-2019-q4-major/bin/../lib/gcc/arm-none-eabi/9.2.1/../../../../arm-none-eabi/lib/thumb/v7e-m/nofp\libc.a(lib_a-wbuf.o)
 .ARM.attributes
                0x00000000       0x2e c:/ti/ccs1220/ccs/tools/compiler/gcc-arm-none-eabi-9-2019-q4-major/bin/../lib/gcc/arm-none-eabi/9.2.1/../../../../arm-none-eabi/lib/thumb/v7e-m/nofp\libc.a(lib_a-wbuf.o)
 .debug_frame   0x00000000       0x60 c:/ti/ccs1220/ccs/tools/compiler/gcc-arm-none-eabi-9-2019-q4-major/bin/../lib/gcc/arm-none-eabi/9.2.1/../../../../arm-none-eabi/lib/thumb/v7e-m/nofp\libc.a(lib_a-wcrtomb.o)
 .ARM.attributes
                0x00000000       0x2e c:/ti/ccs1220/ccs/tools/compiler/gcc-arm-none-eabi-9-2019-q4-major/bin/../lib/gcc/arm-none-eabi/9.2.1/../../../../arm-none-eabi/lib/thumb/v7e-m/nofp\libc.a(lib_a-wcrtomb.o)
 .debug_frame   0x00000000       0x3c c:/ti/ccs1220/ccs/tools/compiler/gcc-arm-none-eabi-9-2019-q4-major/bin/../lib/gcc/arm-none-eabi/9.2.1/../../../../arm-none-eabi/lib/thumb/v7e-m/nofp\libc.a(lib_a-wctomb_r.o)
 .ARM.attributes
                0x00000000       0x2e c:/ti/ccs1220/ccs/tools/compiler/gcc-arm-none-eabi-9-2019-q4-major/bin/../lib/gcc/arm-none-eabi/9.2.1/../../../../arm-none-eabi/lib/thumb/v7e-m/nofp\libc.a(lib_a-wctomb_r.o)
 .ARM.attributes
                0x00000000       0x2e c:/ti/ccs1220/ccs/tools/compiler/gcc-arm-none-eabi-9-2019-q4-major/bin/../lib/gcc/arm-none-eabi/9.2.1/../../../../arm-none-eabi/lib/thumb/v7e-m/nofp\libc.a(lib_a-ctype_.o)
 .debug_frame   0x00000000       0x30 c:/ti/ccs1220/ccs/tools/compiler/gcc-arm-none-eabi-9-2019-q4-major/bin/../lib/gcc/arm-none-eabi/9.2.1/thumb/v7e-m/nofp\libgcc.a(_arm_muldf3.o)
 .ARM.attributes
                0x00000000       0x1e c:/ti/ccs1220/ccs/tools/compiler/gcc-arm-none-eabi-9-2019-q4-major/bin/../lib/gcc/arm-none-eabi/9.2.1/thumb/v7e-m/nofp\libgcc.a(_arm_muldf3.o)
 .debug_frame   0x00000000       0xac c:/ti/ccs1220/ccs/tools/compiler/gcc-arm-none-eabi-9-2019-q4-major/bin/../lib/gcc/arm-none-eabi/9.2.1/thumb/v7e-m/nofp\libgcc.a(_arm_addsubdf3.o)
 .ARM.attributes
                0x00000000       0x1e c:/ti/ccs1220/ccs/tools/compiler/gcc-arm-none-eabi-9-2019-q4-major/bin/../lib/gcc/arm-none-eabi/9.2.1/thumb/v7e-m/nofp\libgcc.a(_arm_addsubdf3.o)
 .debug_frame   0x00000000       0x50 c:/ti/ccs1220/ccs/tools/compiler/gcc-arm-none-eabi-9-2019-q4-major/bin/../lib/gcc/arm-none-eabi/9.2.1/thumb/v7e-m/nofp\libgcc.a(_arm_muldivdf3.o)
 .ARM.attributes
                0x00000000       0x1e c:/ti/ccs1220/ccs/tools/compiler/gcc-arm-none-eabi-9-2019-q4-major/bin/../lib/gcc/arm-none-eabi/9.2.1/thumb/v7e-m/nofp\libgcc.a(_arm_muldivdf3.o)
 .debug_frame   0x00000000       0xc4 c:/ti/ccs1220/ccs/tools/compiler/gcc-arm-none-eabi-9-2019-q4-major/bin/../lib/gcc/arm-none-eabi/9.2.1/thumb/v7e-m/nofp\libgcc.a(_arm_cmpdf2.o)
 .ARM.attributes
                0x00000000       0x1e c:/ti/ccs1220/ccs/tools/compiler/gcc-arm-none-eabi-9-2019-q4-major/bin/../lib/gcc/arm-none-eabi/9.2.1/thumb/v7e-m/nofp\libgcc.a(_arm_cmpdf2.o)
 .debug_frame   0x00000000       0x20 c:/ti/ccs1220/ccs/tools/compiler/gcc-arm-none-eabi-9-2019-q4-major/bin/../lib/gcc/arm-none-eabi/9.2.1/thumb/v7e-m/nofp\libgcc.a(_arm_unorddf2.o)
 .ARM.attributes
                0x00000000       0x1e c:/ti/ccs1220/ccs/tools/compiler/gcc-arm-none-eabi-9-2019-q4-major/bin/../lib/gcc/arm-none-eabi/9.2.1/thumb/v7e-m/nofp\libgcc.a(_arm_unorddf2.o)
 .debug_frame   0x00000000       0x24 c:/ti/ccs1220/ccs/tools/compiler/gcc-arm-none-eabi-9-2019-q4-major/bin/../lib/gcc/arm-none-eabi/9.2.1/thumb/v7e-m/nofp\libgcc.a(_arm_fixdfsi.o)
 .ARM.attributes
                0x00000000       0x1e c:/ti/ccs1220/ccs/tools/compiler/gcc-arm-none-eabi-9-2019-q4-major/bin/../lib/gcc/arm-none-eabi/9.2.1/thumb/v7e-m/nofp\libgcc.a(_arm_fixdfsi.o)
 .debug_frame   0x00000000       0x24 c:/ti/ccs1220/ccs/tools/compiler/gcc-arm-none-eabi-9-2019-q4-major/bin/../lib/gcc/arm-none-eabi/9.2.1/thumb/v7e-m/nofp\libgcc.a(_arm_truncdfsf2.o)
 .ARM.attributes
                0x00000000       0x1e c:/ti/ccs1220/ccs/tools/compiler/gcc-arm-none-eabi-9-2019-q4-major/bin/../lib/gcc/arm-none-eabi/9.2.1/thumb/v7e-m/nofp\libgcc.a(_arm_truncdfsf2.o)
 .debug_frame   0x00000000       0x2c c:/ti/ccs1220/ccs/tools/compiler/gcc-arm-none-eabi-9-2019-q4-major/bin/../lib/gcc/arm-none-eabi/9.2.1/thumb/v7e-m/nofp\libgcc.a(_aeabi_uldivmod.o)
 .ARM.attributes
                0x00000000       0x1e c:/ti/ccs1220/ccs/tools/compiler/gcc-arm-none-eabi-9-2019-q4-major/bin/../lib/gcc/arm-none-eabi/9.2.1/thumb/v7e-m/nofp\libgcc.a(_aeabi_uldivmod.o)
 .ARM.extab     0x00000000        0x0 c:/ti/ccs1220/ccs/tools/compiler/gcc-arm-none-eabi-9-2019-q4-major/bin/../lib/gcc/arm-none-eabi/9.2.1/thumb/v7e-m/nofp\libgcc.a(_udivmoddi4.o)
 .ARM.exidx     0x00000000        0x8 c:/ti/ccs1220/ccs/tools/compiler/gcc-arm-none-eabi-9-2019-q4-major/bin/../lib/gcc/arm-none-eabi/9.2.1/thumb/v7e-m/nofp\libgcc.a(_udivmoddi4.o)
 .debug_frame   0x00000000       0x34 c:/ti/ccs1220/ccs/tools/compiler/gcc-arm-none-eabi-9-2019-q4-major/bin/../lib/gcc/arm-none-eabi/9.2.1/thumb/v7e-m/nofp\libgcc.a(_udivmoddi4.o)
 .ARM.attributes
                0x00000000       0x2e c:/ti/ccs1220/ccs/tools/compiler/gcc-arm-none-eabi-9-2019-q4-major/bin/../lib/gcc/arm-none-eabi/9.2.1/thumb/v7e-m/nofp\libgcc.a(_udivmoddi4.o)
 .ARM.attributes
                0x00000000       0x1e c:/ti/ccs1220/ccs/tools/compiler/gcc-arm-none-eabi-9-2019-q4-major/bin/../lib/gcc/arm-none-eabi/9.2.1/thumb/v7e-m/nofp\libgcc.a(_dvmd_tls.o)

Memory Configuration

Name             Origin             Length             Attributes
ROM              0x00020000         0x00020000         xr
RAM              0x20002000         0x00006000         xrw
*default*        0x00000000         0xffffffff

Linker script and memory map

LOAD c:/ti/ccs1220/ccs/tools/compiler/gcc-arm-none-eabi-9-2019-q4-major/bin/../lib/gcc/arm-none-eabi/9.2.1/thumb/v7e-m/nofp/crti.o
LOAD c:/ti/ccs1220/ccs/tools/compiler/gcc-arm-none-eabi-9-2019-q4-major/bin/../lib/gcc/arm-none-eabi/9.2.1/thumb/v7e-m/nofp/crtbegin.o
LOAD c:/ti/ccs1220/ccs/tools/compiler/gcc-arm-none-eabi-9-2019-q4-major/bin/../lib/gcc/arm-none-eabi/9.2.1/../../../../arm-none-eabi/lib/thumb/v7e-m/nofp/crt0.o
LOAD ./Source/App/Main/main.o
LOAD ./Source/BSP/bsp.o
LOAD ./Source/BSP/startup_tm4c_gnu.o
LOAD ./Source/Driver/ADC/ADC_Driver.o
LOAD ./Source/Driver/CAN/CAN_Driver.o
LOAD ./Source/Driver/GPIO/GPIOdriver.o
LOAD ./Source/Driver/I2C/I2C.o
LOAD ./Source/Driver/LCD/LCD.o
LOAD ./Source/Driver/SPI/SPI.o
LOAD ./Source/Driver/Timer/Timer.o
LOAD ./Source/Driver/Timer/timercnter.o
LOAD ./Source/Driver/UART/UART.o
LOAD ./Source/FreeRtos/croutine.o
LOAD ./Source/FreeRtos/event_groups.o
LOAD ./Source/FreeRtos/list.o
LOAD ./Source/FreeRtos/queue.o
LOAD ./Source/FreeRtos/stream_buffer.o
LOAD ./Source/FreeRtos/tasks.o
LOAD ./Source/FreeRtos/timers.o
LOAD ./Source/FreeRtos/portable/Common/mpu_wrappers.o
LOAD ./Source/FreeRtos/portable/GCC/ARM_CM4F/port.o
LOAD ./Source/FreeRtos/portable/MemMang/heap_2.o
LOAD ./Source/Middleware/MCP3208/MCP3208.o
LOAD ./Source/Middleware/OLED_SSD1306/SSD1306.o
LOAD ./Source/Middleware/RTC_DS3231/DS3231.o
                0x00001000                STACK_SIZE = 0x1000
                0x00001000                HEAP_SIZE = 0x1000

.isr_vector     0x00020000      0x26c
 *(.isr_vector)
 .isr_vector    0x00020000      0x26c ./Source/BSP/startup_tm4c_gnu.o
                0x00020000                g_pfnVectors
                0x0002026c                . = ALIGN (0x4)

.eh_frame       0x0002026c        0x4
 .eh_frame      0x0002026c        0x0 c:/ti/ccs1220/ccs/tools/compiler/gcc-arm-none-eabi-9-2019-q4-major/bin/../lib/gcc/arm-none-eabi/9.2.1/thumb/v7e-m/nofp/crtbegin.o
 .eh_frame      0x0002026c        0x4 c:/ti/ccs1220/ccs/tools/compiler/gcc-arm-none-eabi-9-2019-q4-major/bin/../lib/gcc/arm-none-eabi/9.2.1/thumb/v7e-m/nofp/crtend.o

.ARM.extab      0x00020270        0x0
 .ARM.extab     0x00020270        0x0 c:/ti/ccs1220/ccs/tools/compiler/gcc-arm-none-eabi-9-2019-q4-major/bin/../lib/gcc/arm-none-eabi/9.2.1/../../../../arm-none-eabi/lib/thumb/v7e-m/nofp/crt0.o

.ARM.exidx      0x00020270        0x8
 .ARM.exidx     0x00020270        0x8 c:/ti/ccs1220/ccs/tools/compiler/gcc-arm-none-eabi-9-2019-q4-major/bin/../lib/gcc/arm-none-eabi/9.2.1/../../../../arm-none-eabi/lib/thumb/v7e-m/nofp/crt0.o

.text           0x00020280    0x11c50
                0x00020280                . = ALIGN (0x4)
 *(.text)
 .text          0x00020280        0x0 c:/ti/ccs1220/ccs/tools/compiler/gcc-arm-none-eabi-9-2019-q4-major/bin/../lib/gcc/arm-none-eabi/9.2.1/thumb/v7e-m/nofp/crti.o
 .text          0x00020280       0x40 c:/ti/ccs1220/ccs/tools/compiler/gcc-arm-none-eabi-9-2019-q4-major/bin/../lib/gcc/arm-none-eabi/9.2.1/thumb/v7e-m/nofp/crtbegin.o
 .text          0x000202c0       0x74 c:/ti/ccs1220/ccs/tools/compiler/gcc-arm-none-eabi-9-2019-q4-major/bin/../lib/gcc/arm-none-eabi/9.2.1/../../../../arm-none-eabi/lib/thumb/v7e-m/nofp/crt0.o
                0x000202c0                _start
                0x000202c0                _mainCRTStartup
 .text          0x00020334        0x0 ./Source/App/Main/main.o
 .text          0x00020334        0x0 ./Source/BSP/bsp.o
 .text          0x00020334        0x0 ./Source/BSP/startup_tm4c_gnu.o
 .text          0x00020334        0x0 ./Source/Driver/ADC/ADC_Driver.o
 .text          0x00020334        0x0 ./Source/Driver/CAN/CAN_Driver.o
 .text          0x00020334        0x0 ./Source/Driver/GPIO/GPIOdriver.o
 .text          0x00020334        0x0 ./Source/Driver/I2C/I2C.o
 .text          0x00020334        0x0 ./Source/Driver/LCD/LCD.o
 .text          0x00020334        0x0 ./Source/Driver/SPI/SPI.o
 .text          0x00020334        0x0 ./Source/Driver/Timer/Timer.o
 .text          0x00020334        0x0 ./Source/Driver/Timer/timercnter.o
 .text          0x00020334        0x0 ./Source/Driver/UART/UART.o
 .text          0x00020334        0x0 ./Source/FreeRtos/croutine.o
 .text          0x00020334        0x0 ./Source/FreeRtos/event_groups.o
 .text          0x00020334        0x0 ./Source/FreeRtos/list.o
 .text          0x00020334        0x0 ./Source/FreeRtos/queue.o
 .text          0x00020334        0x0 ./Source/FreeRtos/stream_buffer.o
 .text          0x00020334        0x0 ./Source/FreeRtos/tasks.o
 .text          0x00020334        0x0 ./Source/FreeRtos/timers.o
 .text          0x00020334        0x0 ./Source/FreeRtos/portable/Common/mpu_wrappers.o
 .text          0x00020334        0x0 ./Source/FreeRtos/portable/GCC/ARM_CM4F/port.o
 .text          0x00020334        0x0 ./Source/FreeRtos/portable/MemMang/heap_2.o
 .text          0x00020334        0x0 ./Source/Middleware/MCP3208/MCP3208.o
 .text          0x00020334        0x0 ./Source/Middleware/OLED_SSD1306/SSD1306.o
 .text          0x00020334        0x0 ./Source/Middleware/RTC_DS3231/DS3231.o
 .text          0x00020334        0x0 c:/ti/ccs1220/ccs/tools/compiler/gcc-arm-none-eabi-9-2019-q4-major/bin/../lib/gcc/arm-none-eabi/9.2.1/../../../../arm-none-eabi/lib/thumb/v7e-m/nofp\libc.a(lib_a-exit.o)
 .text          0x00020334        0x0 c:/ti/ccs1220/ccs/tools/compiler/gcc-arm-none-eabi-9-2019-q4-major/bin/../lib/gcc/arm-none-eabi/9.2.1/../../../../arm-none-eabi/lib/thumb/v7e-m/nofp\libc.a(lib_a-impure.o)
 .text          0x00020334        0x0 c:/ti/ccs1220/ccs/tools/compiler/gcc-arm-none-eabi-9-2019-q4-major/bin/../lib/gcc/arm-none-eabi/9.2.1/../../../../arm-none-eabi/lib/thumb/v7e-m/nofp\libc.a(lib_a-init.o)
 .text          0x00020334      0x134 c:/ti/ccs1220/ccs/tools/compiler/gcc-arm-none-eabi-9-2019-q4-major/bin/../lib/gcc/arm-none-eabi/9.2.1/../../../../arm-none-eabi/lib/thumb/v7e-m/nofp\libc.a(lib_a-memcpy.o)
                0x00020334                memcpy
 .text          0x00020468        0x0 c:/ti/ccs1220/ccs/tools/compiler/gcc-arm-none-eabi-9-2019-q4-major/bin/../lib/gcc/arm-none-eabi/9.2.1/../../../../arm-none-eabi/lib/thumb/v7e-m/nofp\libc.a(lib_a-memset.o)
 .text          0x00020468        0x0 c:/ti/ccs1220/ccs/tools/compiler/gcc-arm-none-eabi-9-2019-q4-major/bin/../lib/gcc/arm-none-eabi/9.2.1/../../../../arm-none-eabi/lib/thumb/v7e-m/nofp\libc.a(lib_a-printf.o)
 .text          0x00020468        0x0 c:/ti/ccs1220/ccs/tools/compiler/gcc-arm-none-eabi-9-2019-q4-major/bin/../lib/gcc/arm-none-eabi/9.2.1/../../../../arm-none-eabi/lib/thumb/v7e-m/nofp\libc.a(lib_a-puts.o)
 *fill*         0x00020468       0x18 
 .text          0x00020480       0xdc c:/ti/ccs1220/ccs/tools/compiler/gcc-arm-none-eabi-9-2019-q4-major/bin/../lib/gcc/arm-none-eabi/9.2.1/../../../../arm-none-eabi/lib/thumb/v7e-m/nofp\libc.a(lib_a-strlen.o)
                0x00020480                strlen
 .text          0x0002055c        0x0 c:/ti/ccs1220/ccs/tools/compiler/gcc-arm-none-eabi-9-2019-q4-major/bin/../lib/gcc/arm-none-eabi/9.2.1/../../../../arm-none-eabi/lib/thumb/v7e-m/nofp\libc.a(lib_a-vfprintf.o)
 .text          0x0002055c        0x0 c:/ti/ccs1220/ccs/tools/compiler/gcc-arm-none-eabi-9-2019-q4-major/bin/../lib/gcc/arm-none-eabi/9.2.1/../../../../arm-none-eabi/lib/thumb/v7e-m/nofp\libc.a(lib_a-wsetup.o)
 .text          0x0002055c        0x0 c:/ti/ccs1220/ccs/tools/compiler/gcc-arm-none-eabi-9-2019-q4-major/bin/../lib/gcc/arm-none-eabi/9.2.1/../../../../arm-none-eabi/lib/thumb/v7e-m/nofp\libc.a(lib_a-__call_atexit.o)
 .text          0x0002055c        0x0 c:/ti/ccs1220/ccs/tools/compiler/gcc-arm-none-eabi-9-2019-q4-major/bin/../lib/gcc/arm-none-eabi/9.2.1/../../../../arm-none-eabi/lib/thumb/v7e-m/nofp\libc.a(lib_a-atexit.o)
 .text          0x0002055c        0x0 c:/ti/ccs1220/ccs/tools/compiler/gcc-arm-none-eabi-9-2019-q4-major/bin/../lib/gcc/arm-none-eabi/9.2.1/../../../../arm-none-eabi/lib/thumb/v7e-m/nofp\libc.a(lib_a-dtoa.o)
 .text          0x0002055c        0x0 c:/ti/ccs1220/ccs/tools/compiler/gcc-arm-none-eabi-9-2019-q4-major/bin/../lib/gcc/arm-none-eabi/9.2.1/../../../../arm-none-eabi/lib/thumb/v7e-m/nofp\libc.a(lib_a-fflush.o)
 .text          0x0002055c        0x0 c:/ti/ccs1220/ccs/tools/compiler/gcc-arm-none-eabi-9-2019-q4-major/bin/../lib/gcc/arm-none-eabi/9.2.1/../../../../arm-none-eabi/lib/thumb/v7e-m/nofp\libc.a(lib_a-findfp.o)
 .text          0x0002055c        0x0 c:/ti/ccs1220/ccs/tools/compiler/gcc-arm-none-eabi-9-2019-q4-major/bin/../lib/gcc/arm-none-eabi/9.2.1/../../../../arm-none-eabi/lib/thumb/v7e-m/nofp\libc.a(lib_a-fini.o)
 .text          0x0002055c        0x0 c:/ti/ccs1220/ccs/tools/compiler/gcc-arm-none-eabi-9-2019-q4-major/bin/../lib/gcc/arm-none-eabi/9.2.1/../../../../arm-none-eabi/lib/thumb/v7e-m/nofp\libc.a(lib_a-freer.o)
 .text          0x0002055c        0x0 c:/ti/ccs1220/ccs/tools/compiler/gcc-arm-none-eabi-9-2019-q4-major/bin/../lib/gcc/arm-none-eabi/9.2.1/../../../../arm-none-eabi/lib/thumb/v7e-m/nofp\libc.a(lib_a-fvwrite.o)
 .text          0x0002055c        0x0 c:/ti/ccs1220/ccs/tools/compiler/gcc-arm-none-eabi-9-2019-q4-major/bin/../lib/gcc/arm-none-eabi/9.2.1/../../../../arm-none-eabi/lib/thumb/v7e-m/nofp\libc.a(lib_a-fwalk.o)
 .text          0x0002055c        0x0 c:/ti/ccs1220/ccs/tools/compiler/gcc-arm-none-eabi-9-2019-q4-major/bin/../lib/gcc/arm-none-eabi/9.2.1/../../../../arm-none-eabi/lib/thumb/v7e-m/nofp\libc.a(lib_a-localeconv.o)
 .text          0x0002055c        0x0 c:/ti/ccs1220/ccs/tools/compiler/gcc-arm-none-eabi-9-2019-q4-major/bin/../lib/gcc/arm-none-eabi/9.2.1/../../../../arm-none-eabi/lib/thumb/v7e-m/nofp\libc.a(lib_a-lock.o)
 .text          0x0002055c        0x0 c:/ti/ccs1220/ccs/tools/compiler/gcc-arm-none-eabi-9-2019-q4-major/bin/../lib/gcc/arm-none-eabi/9.2.1/../../../../arm-none-eabi/lib/thumb/v7e-m/nofp\libc.a(lib_a-makebuf.o)
 .text          0x0002055c        0x0 c:/ti/ccs1220/ccs/tools/compiler/gcc-arm-none-eabi-9-2019-q4-major/bin/../lib/gcc/arm-none-eabi/9.2.1/../../../../arm-none-eabi/lib/thumb/v7e-m/nofp\libc.a(lib_a-mallocr.o)
 *fill*         0x0002055c        0x4 
 .text          0x00020560       0xa0 c:/ti/ccs1220/ccs/tools/compiler/gcc-arm-none-eabi-9-2019-q4-major/bin/../lib/gcc/arm-none-eabi/9.2.1/../../../../arm-none-eabi/lib/thumb/v7e-m/nofp\libc.a(lib_a-memchr.o)
                0x00020560                memchr
 .text          0x00020600        0x0 c:/ti/ccs1220/ccs/tools/compiler/gcc-arm-none-eabi-9-2019-q4-major/bin/../lib/gcc/arm-none-eabi/9.2.1/../../../../arm-none-eabi/lib/thumb/v7e-m/nofp\libc.a(lib_a-memmove.o)
 .text          0x00020600        0x0 c:/ti/ccs1220/ccs/tools/compiler/gcc-arm-none-eabi-9-2019-q4-major/bin/../lib/gcc/arm-none-eabi/9.2.1/../../../../arm-none-eabi/lib/thumb/v7e-m/nofp\libc.a(lib_a-mlock.o)
 .text          0x00020600        0x0 c:/ti/ccs1220/ccs/tools/compiler/gcc-arm-none-eabi-9-2019-q4-major/bin/../lib/gcc/arm-none-eabi/9.2.1/../../../../arm-none-eabi/lib/thumb/v7e-m/nofp\libc.a(lib_a-mprec.o)
 .text          0x00020600        0x0 c:/ti/ccs1220/ccs/tools/compiler/gcc-arm-none-eabi-9-2019-q4-major/bin/../lib/gcc/arm-none-eabi/9.2.1/../../../../arm-none-eabi/lib/thumb/v7e-m/nofp\libc.a(lib_a-reallocr.o)
 .text          0x00020600        0x0 c:/ti/ccs1220/ccs/tools/compiler/gcc-arm-none-eabi-9-2019-q4-major/bin/../lib/gcc/arm-none-eabi/9.2.1/../../../../arm-none-eabi/lib/thumb/v7e-m/nofp\libc.a(lib_a-s_frexp.o)
 .text          0x00020600        0x0 c:/ti/ccs1220/ccs/tools/compiler/gcc-arm-none-eabi-9-2019-q4-major/bin/../lib/gcc/arm-none-eabi/9.2.1/../../../../arm-none-eabi/lib/thumb/v7e-m/nofp\libc.a(lib_a-sbrkr.o)
 .text          0x00020600        0x0 c:/ti/ccs1220/ccs/tools/compiler/gcc-arm-none-eabi-9-2019-q4-major/bin/../lib/gcc/arm-none-eabi/9.2.1/../../../../arm-none-eabi/lib/thumb/v7e-m/nofp\libc.a(lib_a-stdio.o)
 .text          0x00020600        0x0 c:/ti/ccs1220/ccs/tools/compiler/gcc-arm-none-eabi-9-2019-q4-major/bin/../lib/gcc/arm-none-eabi/9.2.1/../../../../arm-none-eabi/lib/thumb/v7e-m/nofp\libc.a(lib_a-strncpy.o)
 .text          0x00020600        0x0 c:/ti/ccs1220/ccs/tools/compiler/gcc-arm-none-eabi-9-2019-q4-major/bin/../lib/gcc/arm-none-eabi/9.2.1/../../../../arm-none-eabi/lib/thumb/v7e-m/nofp\libc.a(lib_a-vfiprintf.o)
 .text          0x00020600        0x0 c:/ti/ccs1220/ccs/tools/compiler/gcc-arm-none-eabi-9-2019-q4-major/bin/../lib/gcc/arm-none-eabi/9.2.1/../../../../arm-none-eabi/lib/thumb/v7e-m/nofp\libc.a(lib_a-writer.o)
 .text          0x00020600        0x0 c:/ti/ccs1220/ccs/tools/compiler/gcc-arm-none-eabi-9-2019-q4-major/bin/../lib/gcc/arm-none-eabi/9.2.1/../../../../arm-none-eabi/lib/thumb/v7e-m/nofp\libc.a(lib_a-__atexit.o)
 .text          0x00020600        0x0 c:/ti/ccs1220/ccs/tools/compiler/gcc-arm-none-eabi-9-2019-q4-major/bin/../lib/gcc/arm-none-eabi/9.2.1/../../../../arm-none-eabi/lib/thumb/v7e-m/nofp\libc.a(lib_a-callocr.o)
 .text          0x00020600        0x0 c:/ti/ccs1220/ccs/tools/compiler/gcc-arm-none-eabi-9-2019-q4-major/bin/../lib/gcc/arm-none-eabi/9.2.1/../../../../arm-none-eabi/lib/thumb/v7e-m/nofp\libc.a(lib_a-closer.o)
 .text          0x00020600        0x0 c:/ti/ccs1220/ccs/tools/compiler/gcc-arm-none-eabi-9-2019-q4-major/bin/../lib/gcc/arm-none-eabi/9.2.1/../../../../arm-none-eabi/lib/thumb/v7e-m/nofp\libc.a(lib_a-fclose.o)
 .text          0x00020600        0x0 c:/ti/ccs1220/ccs/tools/compiler/gcc-arm-none-eabi-9-2019-q4-major/bin/../lib/gcc/arm-none-eabi/9.2.1/../../../../arm-none-eabi/lib/thumb/v7e-m/nofp\libc.a(lib_a-fputwc.o)
 .text          0x00020600        0x0 c:/ti/ccs1220/ccs/tools/compiler/gcc-arm-none-eabi-9-2019-q4-major/bin/../lib/gcc/arm-none-eabi/9.2.1/../../../../arm-none-eabi/lib/thumb/v7e-m/nofp\libc.a(lib_a-fstatr.o)
 .text          0x00020600        0x0 c:/ti/ccs1220/ccs/tools/compiler/gcc-arm-none-eabi-9-2019-q4-major/bin/../lib/gcc/arm-none-eabi/9.2.1/../../../../arm-none-eabi/lib/thumb/v7e-m/nofp\libc.a(lib_a-isattyr.o)
 .text          0x00020600        0x0 c:/ti/ccs1220/ccs/tools/compiler/gcc-arm-none-eabi-9-2019-q4-major/bin/../lib/gcc/arm-none-eabi/9.2.1/../../../../arm-none-eabi/lib/thumb/v7e-m/nofp\libc.a(lib_a-locale.o)
 .text          0x00020600        0x0 c:/ti/ccs1220/ccs/tools/compiler/gcc-arm-none-eabi-9-2019-q4-major/bin/../lib/gcc/arm-none-eabi/9.2.1/../../../../arm-none-eabi/lib/thumb/v7e-m/nofp\libc.a(lib_a-lseekr.o)
 .text          0x00020600        0x0 c:/ti/ccs1220/ccs/tools/compiler/gcc-arm-none-eabi-9-2019-q4-major/bin/../lib/gcc/arm-none-eabi/9.2.1/../../../../arm-none-eabi/lib/thumb/v7e-m/nofp\libc.a(lib_a-mbtowc_r.o)
 .text          0x00020600        0x0 c:/ti/ccs1220/ccs/tools/compiler/gcc-arm-none-eabi-9-2019-q4-major/bin/../lib/gcc/arm-none-eabi/9.2.1/../../../../arm-none-eabi/lib/thumb/v7e-m/nofp\libc.a(lib_a-readr.o)
 .text          0x00020600        0x0 c:/ti/ccs1220/ccs/tools/compiler/gcc-arm-none-eabi-9-2019-q4-major/bin/../lib/gcc/arm-none-eabi/9.2.1/../../../../arm-none-eabi/lib/thumb/v7e-m/nofp\libc.a(lib_a-reent.o)
 .text          0x00020600      0x2dc c:/ti/ccs1220/ccs/tools/compiler/gcc-arm-none-eabi-9-2019-q4-major/bin/../lib/gcc/arm-none-eabi/9.2.1/../../../../arm-none-eabi/lib/thumb/v7e-m/nofp\libc.a(lib_a-strcmp.o)
                0x00020608                strcmp
 .text          0x000208dc        0x0 c:/ti/ccs1220/ccs/tools/compiler/gcc-arm-none-eabi-9-2019-q4-major/bin/../lib/gcc/arm-none-eabi/9.2.1/../../../../arm-none-eabi/lib/thumb/v7e-m/nofp\libc.a(lib_a-wbuf.o)
 .text          0x000208dc        0x0 c:/ti/ccs1220/ccs/tools/compiler/gcc-arm-none-eabi-9-2019-q4-major/bin/../lib/gcc/arm-none-eabi/9.2.1/../../../../arm-none-eabi/lib/thumb/v7e-m/nofp\libc.a(lib_a-wcrtomb.o)
 .text          0x000208dc        0x0 c:/ti/ccs1220/ccs/tools/compiler/gcc-arm-none-eabi-9-2019-q4-major/bin/../lib/gcc/arm-none-eabi/9.2.1/../../../../arm-none-eabi/lib/thumb/v7e-m/nofp\libc.a(lib_a-wctomb_r.o)
 .text          0x000208dc        0x0 c:/ti/ccs1220/ccs/tools/compiler/gcc-arm-none-eabi-9-2019-q4-major/bin/../lib/gcc/arm-none-eabi/9.2.1/../../../../arm-none-eabi/lib/thumb/v7e-m/nofp\libc.a(lib_a-ctype_.o)
 .text          0x000208dc      0x254 c:/ti/ccs1220/ccs/tools/compiler/gcc-arm-none-eabi-9-2019-q4-major/bin/../lib/gcc/arm-none-eabi/9.2.1/thumb/v7e-m/nofp\libgcc.a(_arm_muldf3.o)
 .text          0x00020b30      0x378 c:/ti/ccs1220/ccs/tools/compiler/gcc-arm-none-eabi-9-2019-q4-major/bin/../lib/gcc/arm-none-eabi/9.2.1/thumb/v7e-m/nofp\libgcc.a(_arm_addsubdf3.o)
                0x00020b30                __aeabi_drsub
                0x00020b38                __aeabi_dsub
                0x00020b38                __subdf3
                0x00020b3c                __aeabi_dadd
                0x00020b3c                __adddf3
                0x00020db4                __floatunsidf
                0x00020db4                __aeabi_ui2d
                0x00020dd4                __floatsidf
                0x00020dd4                __aeabi_i2d
                0x00020df8                __aeabi_f2d
                0x00020df8                __extendsfdf2
                0x00020e3c                __floatundidf
                0x00020e3c                __aeabi_ul2d
                0x00020e4c                __floatdidf
                0x00020e4c                __aeabi_l2d
 .text          0x00020ea8      0x424 c:/ti/ccs1220/ccs/tools/compiler/gcc-arm-none-eabi-9-2019-q4-major/bin/../lib/gcc/arm-none-eabi/9.2.1/thumb/v7e-m/nofp\libgcc.a(_arm_muldivdf3.o)
                0x00020ea8                __aeabi_dmul
                0x00020ea8                __muldf3
                0x000210fc                __divdf3
                0x000210fc                __aeabi_ddiv
 .text          0x000212cc      0x110 c:/ti/ccs1220/ccs/tools/compiler/gcc-arm-none-eabi-9-2019-q4-major/bin/../lib/gcc/arm-none-eabi/9.2.1/thumb/v7e-m/nofp\libgcc.a(_arm_cmpdf2.o)
                0x000212cc                __gtdf2
                0x000212cc                __gedf2
                0x000212d4                __ltdf2
                0x000212d4                __ledf2
                0x000212dc                __nedf2
                0x000212dc                __eqdf2
                0x000212dc                __cmpdf2
                0x00021358                __aeabi_cdrcmple
                0x00021368                __aeabi_cdcmpeq
                0x00021368                __aeabi_cdcmple
                0x00021378                __aeabi_dcmpeq
                0x0002138c                __aeabi_dcmplt
                0x000213a0                __aeabi_dcmple
                0x000213b4                __aeabi_dcmpge
                0x000213c8                __aeabi_dcmpgt
 .text          0x000213dc       0x2c c:/ti/ccs1220/ccs/tools/compiler/gcc-arm-none-eabi-9-2019-q4-major/bin/../lib/gcc/arm-none-eabi/9.2.1/thumb/v7e-m/nofp\libgcc.a(_arm_unorddf2.o)
                0x000213dc                __unorddf2
                0x000213dc                __aeabi_dcmpun
 .text          0x00021408       0x50 c:/ti/ccs1220/ccs/tools/compiler/gcc-arm-none-eabi-9-2019-q4-major/bin/../lib/gcc/arm-none-eabi/9.2.1/thumb/v7e-m/nofp\libgcc.a(_arm_fixdfsi.o)
                0x00021408                __aeabi_d2iz
                0x00021408                __fixdfsi
 .text          0x00021458       0xa0 c:/ti/ccs1220/ccs/tools/compiler/gcc-arm-none-eabi-9-2019-q4-major/bin/../lib/gcc/arm-none-eabi/9.2.1/thumb/v7e-m/nofp\libgcc.a(_arm_truncdfsf2.o)
                0x00021458                __truncdfsf2
                0x00021458                __aeabi_d2f
 .text          0x000214f8       0x30 c:/ti/ccs1220/ccs/tools/compiler/gcc-arm-none-eabi-9-2019-q4-major/bin/../lib/gcc/arm-none-eabi/9.2.1/thumb/v7e-m/nofp\libgcc.a(_aeabi_uldivmod.o)
                0x000214f8                __aeabi_uldivmod
 .text          0x00021528      0x2c0 c:/ti/ccs1220/ccs/tools/compiler/gcc-arm-none-eabi-9-2019-q4-major/bin/../lib/gcc/arm-none-eabi/9.2.1/thumb/v7e-m/nofp\libgcc.a(_udivmoddi4.o)
                0x00021528                __udivmoddi4
 .text          0x000217e8        0x4 c:/ti/ccs1220/ccs/tools/compiler/gcc-arm-none-eabi-9-2019-q4-major/bin/../lib/gcc/arm-none-eabi/9.2.1/thumb/v7e-m/nofp\libgcc.a(_dvmd_tls.o)
                0x000217e8                __aeabi_idiv0
                0x000217e8                __aeabi_ldiv0
 .text          0x000217ec        0x0 c:/ti/ccs1220/ccs/tools/compiler/gcc-arm-none-eabi-9-2019-q4-major/bin/../lib/gcc/arm-none-eabi/9.2.1/../../../../arm-none-eabi/lib/thumb/v7e-m/nofp\libnosys.a(close.o)
 .text          0x000217ec        0x0 c:/ti/ccs1220/ccs/tools/compiler/gcc-arm-none-eabi-9-2019-q4-major/bin/../lib/gcc/arm-none-eabi/9.2.1/../../../../arm-none-eabi/lib/thumb/v7e-m/nofp\libnosys.a(fstat.o)
 .text          0x000217ec        0x0 c:/ti/ccs1220/ccs/tools/compiler/gcc-arm-none-eabi-9-2019-q4-major/bin/../lib/gcc/arm-none-eabi/9.2.1/../../../../arm-none-eabi/lib/thumb/v7e-m/nofp\libnosys.a(isatty.o)
 .text          0x000217ec        0x0 c:/ti/ccs1220/ccs/tools/compiler/gcc-arm-none-eabi-9-2019-q4-major/bin/../lib/gcc/arm-none-eabi/9.2.1/../../../../arm-none-eabi/lib/thumb/v7e-m/nofp\libnosys.a(lseek.o)
 .text          0x000217ec        0x0 c:/ti/ccs1220/ccs/tools/compiler/gcc-arm-none-eabi-9-2019-q4-major/bin/../lib/gcc/arm-none-eabi/9.2.1/../../../../arm-none-eabi/lib/thumb/v7e-m/nofp\libnosys.a(read.o)
 .text          0x000217ec        0x0 c:/ti/ccs1220/ccs/tools/compiler/gcc-arm-none-eabi-9-2019-q4-major/bin/../lib/gcc/arm-none-eabi/9.2.1/../../../../arm-none-eabi/lib/thumb/v7e-m/nofp\libnosys.a(sbrk.o)
 .text          0x000217ec        0x0 c:/ti/ccs1220/ccs/tools/compiler/gcc-arm-none-eabi-9-2019-q4-major/bin/../lib/gcc/arm-none-eabi/9.2.1/../../../../arm-none-eabi/lib/thumb/v7e-m/nofp\libnosys.a(write.o)
 .text          0x000217ec        0x0 c:/ti/ccs1220/ccs/tools/compiler/gcc-arm-none-eabi-9-2019-q4-major/bin/../lib/gcc/arm-none-eabi/9.2.1/../../../../arm-none-eabi/lib/thumb/v7e-m/nofp\libnosys.a(_exit.o)
 .text          0x000217ec        0x0 c:/ti/ccs1220/ccs/tools/compiler/gcc-arm-none-eabi-9-2019-q4-major/bin/../lib/gcc/arm-none-eabi/9.2.1/thumb/v7e-m/nofp/crtend.o
 .text          0x000217ec        0x0 c:/ti/ccs1220/ccs/tools/compiler/gcc-arm-none-eabi-9-2019-q4-major/bin/../lib/gcc/arm-none-eabi/9.2.1/thumb/v7e-m/nofp/crtn.o
 *(.text*)
 .text.main     0x000217ec        0xe ./Source/App/Main/main.o
                0x000217ec                main
 *fill*         0x000217fa        0x2 
 .text.NVIC_SystemReset
                0x000217fc       0x30 ./Source/BSP/bsp.o
 .text.assert_failed
                0x0002182c        0x6 ./Source/BSP/bsp.o
                0x0002182c                assert_failed
 *fill*         0x00021832        0x2 
 .text.BSP_init
                0x00021834       0x28 ./Source/BSP/bsp.o
                0x00021834                BSP_init
 .text.Reset_Handler
                0x0002185c       0x74 ./Source/BSP/startup_tm4c_gnu.o
                0x0002185c                Reset_Handler
 .text.NMI_Handler
                0x000218d0       0x18 ./Source/BSP/startup_tm4c_gnu.o
                0x000218d0                NMI_Handler
 .text.MemManage_Handler
                0x000218e8       0x1c ./Source/BSP/startup_tm4c_gnu.o
                0x000218e8                MemManage_Handler
 .text.HardFault_Handler
                0x00021904       0x1c ./Source/BSP/startup_tm4c_gnu.o
                0x00021904                HardFault_Handler
 .text.BusFault_Handler
                0x00021920       0x1c ./Source/BSP/startup_tm4c_gnu.o
                0x00021920                BusFault_Handler
 .text.UsageFault_Handler
                0x0002193c       0x20 ./Source/BSP/startup_tm4c_gnu.o
                0x0002193c                UsageFault_Handler
 .text.Default_Handler
                0x0002195c       0x1c ./Source/BSP/startup_tm4c_gnu.o
                0x0002195c                uDMAST_IRQHandler
                0x0002195c                GPIOPortP4_IRQHandler
                0x0002195c                PWM1Gen3_IRQHandler
                0x0002195c                WideTimer5B_IRQHandler
                0x0002195c                DebugMon_Handler
                0x0002195c                QEI2_IRQHandler
                0x0002195c                FlashCtrl_IRQHandler
                0x0002195c                GPIOPortP7_IRQHandler
                0x0002195c                Timer0B_IRQHandler
                0x0002195c                I2C0_IRQHandler
                0x0002195c                SysTick_Handler
                0x0002195c                WideTimer4B_IRQHandler
                0x0002195c                PendSV_Handler
                0x0002195c                I2C1_IRQHandler
                0x0002195c                GPIOPortP5_IRQHandler
                0x0002195c                PWMGen0_IRQHandler
                0x0002195c                UART1_IRQHandler
                0x0002195c                CAN1_IRQHandler
                0x0002195c                Timer1B_IRQHandler
                0x0002195c                Watchdog_IRQHandler
                0x0002195c                GPIOPortS_IRQHandler
                0x0002195c                GPIOPortQ7_IRQHandler
                0x0002195c                PWM1Gen2_IRQHandler
                0x0002195c                UART0_IRQHandler
                0x0002195c                GPIOPortL_IRQHandler
                0x0002195c                SSI0_IRQHandler
                0x0002195c                GPIOPortM_IRQHandler
                0x0002195c                FPU_IRQHandler
                0x0002195c                ADCSeq1_IRQHandler
                0x0002195c                GPIOPortP0_IRQHandler
                0x0002195c                WideTimer0B_IRQHandler
                0x0002195c                PWMFault_IRQHandler
                0x0002195c                WideTimer1A_IRQHandler
                0x0002195c                I2C5_IRQHandler
                0x0002195c                I2C4_IRQHandler
                0x0002195c                GPIOPortQ5_IRQHandler
                0x0002195c                PWMGen1_IRQHandler
                0x0002195c                SSI1_IRQHandler
                0x0002195c                I2C2_IRQHandler
                0x0002195c                UART5_IRQHandler
                0x0002195c                GPIOPortC_IRQHandler
                0x0002195c                GPIOPortK_IRQHandler
                0x0002195c                ADCSeq2_IRQHandler
                0x0002195c                PWMGen2_IRQHandler
                0x0002195c                UART2_IRQHandler
                0x0002195c                GPIOPortP3_IRQHandler
                0x0002195c                ADC1Seq0_IRQHandler
                0x0002195c                UART4_IRQHandler
                0x0002195c                GPIOPortJ_IRQHandler
                0x0002195c                Default_Handler
                0x0002195c                WideTimer0A_IRQHandler
                0x0002195c                Timer5A_IRQHandler
                0x0002195c                WideTimer3B_IRQHandler
                0x0002195c                WideTimer2B_IRQHandler
                0x0002195c                WideTimer5A_IRQHandler
                0x0002195c                Timer4A_IRQHandler
                0x0002195c                QEI1_IRQHandler
                0x0002195c                PWM1Fault_IRQHandler
                0x0002195c                GPIOPortP6_IRQHandler
                0x0002195c                QEI0_IRQHandler
                0x0002195c                ADC1Seq2_IRQHandler
                0x0002195c                ADC1Seq1_IRQHandler
                0x0002195c                PWMGen3_IRQHandler
                0x0002195c                GPIOPortD_IRQHandler
                0x0002195c                USB0_IRQHandler
                0x0002195c                I2C3_IRQHandler
                0x0002195c                SVC_Handler
                0x0002195c                GPIOPortP2_IRQHandler
                0x0002195c                GPIOPortQ4_IRQHandler
                0x0002195c                Timer3B_IRQHandler
                0x0002195c                Timer3A_IRQHandler
                0x0002195c                GPIOPortA_IRQHandler
                0x0002195c                ADC1Seq3_IRQHandler
                0x0002195c                Timer0A_IRQHandler
                0x0002195c                GPIOPortP1_IRQHandler
                0x0002195c                ADCSeq0_IRQHandler
                0x0002195c                Timer1A_IRQHandler
                0x0002195c                GPIOPortG_IRQHandler
                0x0002195c                GPIOPortQ3_IRQHandler
                0x0002195c                GPIOPortQ1_IRQHandler
                0x0002195c                Timer5B_IRQHandler
                0x0002195c                ADCSeq3_IRQHandler
                0x0002195c                WideTimer4A_IRQHandler
                0x0002195c                GPIOPortE_IRQHandler
                0x0002195c                CAN0_IRQHandler
                0x0002195c                GPIOPortQ0_IRQHandler
                0x0002195c                Comp0_IRQHandler
                0x0002195c                Comp1_IRQHandler
                0x0002195c                Comp2_IRQHandler
                0x0002195c                GPIOPortQ6_IRQHandler
                0x0002195c                SSI2_IRQHandler
                0x0002195c                PWM1Gen0_IRQHandler
                0x0002195c                GPIOPortF_IRQHandler
                0x0002195c                UART7_IRQHandler
                0x0002195c                UART6_IRQHandler
                0x0002195c                WideTimer2A_IRQHandler
                0x0002195c                GPIOPortB_IRQHandler
                0x0002195c                WideTimer3A_IRQHandler
                0x0002195c                CAN2_IRQHandler
                0x0002195c                WideTimer1B_IRQHandler
                0x0002195c                GPIOPortH_IRQHandler
                0x0002195c                GPIOPortQ2_IRQHandler
                0x0002195c                GPIOPortR_IRQHandler
                0x0002195c                Timer4B_IRQHandler
                0x0002195c                Timer2A_IRQHandler
                0x0002195c                SSI3_IRQHandler
                0x0002195c                Timer2B_IRQHandler
                0x0002195c                uDMAError_IRQHandler
                0x0002195c                GPIOPortN_IRQHandler
                0x0002195c                UART3_IRQHandler
                0x0002195c                SysCtrl_IRQHandler
                0x0002195c                Hibernate_IRQHandler
                0x0002195c                PWM1Gen1_IRQHandler
 .text.ADC_Init
                0x00021978       0x40 ./Source/Driver/ADC/ADC_Driver.o
                0x00021978                ADC_Init
 .text.ADC_port_Init
                0x000219b8       0x9c ./Source/Driver/ADC/ADC_Driver.o
 .text.ADC_SS_Init
                0x00021a54       0x4c ./Source/Driver/ADC/ADC_Driver.o
                0x00021a54                ADC_SS_Init
 .text.analogRead
                0x00021aa0      0x180 ./Source/Driver/ADC/ADC_Driver.o
                0x00021aa0                analogRead
 .text.CAN0_Driver
                0x00021c20       0xc0 ./Source/Driver/CAN/CAN_Driver.o
                0x00021c20                CAN0_Driver
 .text.CAN0_Init
                0x00021ce0       0xf8 ./Source/Driver/CAN/CAN_Driver.o
                0x00021ce0                CAN0_Init
 .text.CAN0_Transmit_Obj
                0x00021dd8       0xd4 ./Source/Driver/CAN/CAN_Driver.o
 .text.CAN0_Transmit_Data
                0x00021eac       0xc8 ./Source/Driver/CAN/CAN_Driver.o
 .text.GPIO_Init
                0x00021f74       0x70 ./Source/Driver/GPIO/GPIOdriver.o
                0x00021f74                GPIO_Init
 .text.DigitalWrite
                0x00021fe4      0x15c ./Source/Driver/GPIO/GPIOdriver.o
                0x00021fe4                DigitalWrite
 .text.DigitalRead
                0x00022140      0x19c ./Source/Driver/GPIO/GPIOdriver.o
                0x00022140                DigitalRead
 .text.I2C_Init
                0x000222dc      0x2b8 ./Source/Driver/I2C/I2C.o
                0x000222dc                I2C_Init
 .text.Check_I2C_BUS_busy
                0x00022594        0xe ./Source/Driver/I2C/I2C.o
 *fill*         0x000225a2        0x2 
 .text.Check_I2C_busy
                0x000225a4       0x38 ./Source/Driver/I2C/I2C.o
 .text.Check_I2C_error
                0x000225dc       0x88 ./Source/Driver/I2C/I2C.o
 .text.I2C_Write
                0x00022664       0x28 ./Source/Driver/I2C/I2C.o
                0x00022664                I2C_Write
 .text.I2C_Write_Memory
                0x0002268c       0x26 ./Source/Driver/I2C/I2C.o
                0x0002268c                I2C_Write_Memory
 .text.I2C_Write_Multiple
                0x000226b2       0x50 ./Source/Driver/I2C/I2C.o
                0x000226b2                I2C_Write_Multiple
 .text.I2C_Write_Memory_Multiple
                0x00022702       0x5c ./Source/Driver/I2C/I2C.o
                0x00022702                I2C_Write_Memory_Multiple
 *fill*         0x0002275e        0x2 
 .text.I2C_Begin
                0x00022760       0x44 ./Source/Driver/I2C/I2C.o
 .text.I2C_Transmit
                0x000227a4       0xc0 ./Source/Driver/I2C/I2C.o
 .text.I2C_Transmit_start_byte
                0x00022864       0x88 ./Source/Driver/I2C/I2C.o
 .text.I2C_Transmit_byte
                0x000228ec       0x80 ./Source/Driver/I2C/I2C.o
 .text.I2C_Transmit_end_byte
                0x0002296c       0x50 ./Source/Driver/I2C/I2C.o
 .text.I2C_End  0x000229bc       0x2c ./Source/Driver/I2C/I2C.o
 .text.I2C_Read
                0x000229e8       0x26 ./Source/Driver/I2C/I2C.o
                0x000229e8                I2C_Read
 *fill*         0x00022a0e        0x2 
 .text.I2C_Read_Multiple
                0x00022a10      0x1a4 ./Source/Driver/I2C/I2C.o
                0x00022a10                I2C_Read_Multiple
 .text.I2C_Read_Memory
                0x00022bb4       0x36 ./Source/Driver/I2C/I2C.o
                0x00022bb4                I2C_Read_Memory
 .text.I2C_Read_Memory_Multiple
                0x00022bea       0x32 ./Source/Driver/I2C/I2C.o
                0x00022bea                I2C_Read_Memory_Multiple
 .text.LCD_Setup
                0x00022c1c       0x68 ./Source/Driver/LCD/LCD.o
                0x00022c1c                LCD_Setup
 .text.LCD_Init
                0x00022c84       0x7a ./Source/Driver/LCD/LCD.o
                0x00022c84                LCD_Init
 .text.LCD_SetCursor
                0x00022cfe       0x96 ./Source/Driver/LCD/LCD.o
                0x00022cfe                LCD_SetCursor
 .text.LCD_Clear
                0x00022d94        0xe ./Source/Driver/LCD/LCD.o
                0x00022d94                LCD_Clear
 .text.LCD_Write
                0x00022da2       0x3c ./Source/Driver/LCD/LCD.o
                0x00022da2                LCD_Write
 *fill*         0x00022dde        0x2 
 .text.Data_Write
                0x00022de0       0x34 ./Source/Driver/LCD/LCD.o
 .text.Cmd_Write
                0x00022e14       0x34 ./Source/Driver/LCD/LCD.o
 .text.upper_nibble
                0x00022e48       0xac ./Source/Driver/LCD/LCD.o
 .text.lower_nibble
                0x00022ef4       0xac ./Source/Driver/LCD/LCD.o
 .text.toggle_enable_signal
                0x00022fa0       0x30 ./Source/Driver/LCD/LCD.o
 .text.delay    0x00022fd0       0x4a ./Source/Driver/LCD/LCD.o
 .text.LCD_nextline
                0x0002301a        0xe ./Source/Driver/LCD/LCD.o
                0x0002301a                LCD_nextline
 .text.SSI_2_Init
                0x00023028       0xd4 ./Source/Driver/SPI/SPI.o
                0x00023028                SSI_2_Init
 .text.SPI_Write
                0x000230fc       0x58 ./Source/Driver/SPI/SPI.o
                0x000230fc                SPI_Write
 .text.SPI_Read_Write
                0x00023154       0x58 ./Source/Driver/SPI/SPI.o
                0x00023154                SPI_Read_Write
 .text.Enable_Chip_Select
                0x000231ac       0x10 ./Source/Driver/SPI/SPI.o
                0x000231ac                Enable_Chip_Select
 .text.Disable_Chip_Select
                0x000231bc       0x10 ./Source/Driver/SPI/SPI.o
                0x000231bc                Disable_Chip_Select
 .text.Timer_Init
                0x000231cc       0x6c ./Source/Driver/Timer/Timer.o
                0x000231cc                Timer_Init
 .text.Start_Timer_0
                0x00023238       0x20 ./Source/Driver/Timer/Timer.o
 .text.Stop_Timer_0
                0x00023258       0x20 ./Source/Driver/Timer/Timer.o
                0x00023258                Stop_Timer_0
 .text.Refresh_Timer_0
                0x00023278       0x2c ./Source/Driver/Timer/Timer.o
                0x00023278                Refresh_Timer_0
 .text.Timer_scheduler
                0x000232a4      0x194 ./Source/Driver/Timer/Timer.o
                0x000232a4                Timer_scheduler
 .text.Clear_Timer_Flag
                0x00023438       0x64 ./Source/Driver/Timer/Timer.o
 .text.init_Timer_Counter
                0x0002349c       0x70 ./Source/Driver/Timer/timercnter.o
                0x0002349c                init_Timer_Counter
 .text.Start_Timer_counter
                0x0002350c       0x20 ./Source/Driver/Timer/timercnter.o
                0x0002350c                Start_Timer_counter
 .text.Stop_Timer_counter
                0x0002352c       0x24 ./Source/Driver/Timer/timercnter.o
                0x0002352c                Stop_Timer_counter
 .text.Pause_Timer_counter
                0x00023550       0x20 ./Source/Driver/Timer/timercnter.o
                0x00023550                Pause_Timer_counter
 .text.Refresh_Timer_counter
                0x00023570       0x30 ./Source/Driver/Timer/timercnter.o
                0x00023570                Refresh_Timer_counter
 .text.millis   0x000235a0       0x24 ./Source/Driver/Timer/timercnter.o
                0x000235a0                millis
 *fill*         0x000235c4        0x4 
 .text.UART_init
                0x000235c8      0x394 ./Source/Driver/UART/UART.o
                0x000235c8                UART_init
 .text.UART_print
                0x0002395c       0x40 ./Source/Driver/UART/UART.o
                0x0002395c                UART_print
 .text.UART_Transmitter
                0x0002399c       0x54 ./Source/Driver/UART/UART.o
                0x0002399c                UART_Transmitter
 .text.Delay    0x000239f0       0x2e ./Source/Driver/UART/UART.o
                0x000239f0                Delay
 *fill*         0x00023a1e        0x2 
 .text.UART_Receive
                0x00023a20       0x40 ./Source/Driver/UART/UART.o
                0x00023a20                UART_Receive
 .text.UART_RxReady
                0x00023a60       0x38 ./Source/Driver/UART/UART.o
                0x00023a60                UART_RxReady
 .text.xEventGroupCreate
                0x00023a98       0x2e ./Source/FreeRtos/event_groups.o
                0x00023a98                xEventGroupCreate
 *fill*         0x00023ac6        0x2 
 .text.xEventGroupSync
                0x00023ac8      0x15c ./Source/FreeRtos/event_groups.o
                0x00023ac8                xEventGroupSync
 .text.xEventGroupWaitBits
                0x00023c24      0x19c ./Source/FreeRtos/event_groups.o
                0x00023c24                xEventGroupWaitBits
 .text.xEventGroupClearBits
                0x00023dc0       0x70 ./Source/FreeRtos/event_groups.o
                0x00023dc0                xEventGroupClearBits
 .text.xEventGroupGetBitsFromISR
                0x00023e30       0x48 ./Source/FreeRtos/event_groups.o
                0x00023e30                xEventGroupGetBitsFromISR
 .text.xEventGroupSetBits
                0x00023e78      0x116 ./Source/FreeRtos/event_groups.o
                0x00023e78                xEventGroupSetBits
 .text.vEventGroupDelete
                0x00023f8e       0x7e ./Source/FreeRtos/event_groups.o
                0x00023f8e                vEventGroupDelete
 .text.vEventGroupSetBitsCallback
                0x0002400c       0x1a ./Source/FreeRtos/event_groups.o
                0x0002400c                vEventGroupSetBitsCallback
 .text.vEventGroupClearBitsCallback
                0x00024026       0x1a ./Source/FreeRtos/event_groups.o
                0x00024026                vEventGroupClearBitsCallback
 .text.prvTestWaitCondition
                0x00024040       0x44 ./Source/FreeRtos/event_groups.o
 .text.uxEventGroupGetNumber
                0x00024084       0x2c ./Source/FreeRtos/event_groups.o
                0x00024084                uxEventGroupGetNumber
 .text.vEventGroupSetNumber
                0x000240b0       0x1c ./Source/FreeRtos/event_groups.o
                0x000240b0                vEventGroupSetNumber
 .text.vListInitialise
                0x000240cc       0x40 ./Source/FreeRtos/list.o
                0x000240cc                vListInitialise
 .text.vListInitialiseItem
                0x0002410c       0x1a ./Source/FreeRtos/list.o
                0x0002410c                vListInitialiseItem
 .text.vListInsertEnd
                0x00024126       0x48 ./Source/FreeRtos/list.o
                0x00024126                vListInsertEnd
 .text.vListInsert
                0x0002416e       0x72 ./Source/FreeRtos/list.o
                0x0002416e                vListInsert
 .text.uxListRemove
                0x000241e0       0x54 ./Source/FreeRtos/list.o
                0x000241e0                uxListRemove
 .text.xQueueGenericReset
                0x00024234      0x120 ./Source/FreeRtos/queue.o
                0x00024234                xQueueGenericReset
 .text.xQueueGenericCreate
                0x00024354       0x9c ./Source/FreeRtos/queue.o
                0x00024354                xQueueGenericCreate
 .text.prvInitialiseNewQueue
                0x000243f0       0x46 ./Source/FreeRtos/queue.o
 .text.prvInitialiseMutex
                0x00024436       0x34 ./Source/FreeRtos/queue.o
 .text.xQueueCreateMutex
                0x0002446a       0x30 ./Source/FreeRtos/queue.o
                0x0002446a                xQueueCreateMutex
 .text.xQueueGiveMutexRecursive
                0x0002449a       0x68 ./Source/FreeRtos/queue.o
                0x0002449a                xQueueGiveMutexRecursive
 .text.xQueueTakeMutexRecursive
                0x00024502       0x6c ./Source/FreeRtos/queue.o
                0x00024502                xQueueTakeMutexRecursive
 .text.xQueueCreateCountingSemaphore
                0x0002456e       0x5c ./Source/FreeRtos/queue.o
                0x0002456e                xQueueCreateCountingSemaphore
 *fill*         0x000245ca        0x2 
 .text.xQueueGenericSend
                0x000245cc      0x1fc ./Source/FreeRtos/queue.o
                0x000245cc                xQueueGenericSend
 .text.xQueueGenericSendFromISR
                0x000247c8      0x164 ./Source/FreeRtos/queue.o
                0x000247c8                xQueueGenericSendFromISR
 .text.xQueueGiveFromISR
                0x0002492c      0x148 ./Source/FreeRtos/queue.o
                0x0002492c                xQueueGiveFromISR
 .text.xQueueReceive
                0x00024a74      0x1c0 ./Source/FreeRtos/queue.o
                0x00024a74                xQueueReceive
 .text.xQueueSemaphoreTake
                0x00024c34      0x1fc ./Source/FreeRtos/queue.o
                0x00024c34                xQueueSemaphoreTake
 .text.xQueuePeek
                0x00024e30      0x1c4 ./Source/FreeRtos/queue.o
                0x00024e30                xQueuePeek
 .text.xQueueReceiveFromISR
                0x00024ff4      0x12e ./Source/FreeRtos/queue.o
                0x00024ff4                xQueueReceiveFromISR
 .text.xQueuePeekFromISR
                0x00025122       0xd2 ./Source/FreeRtos/queue.o
                0x00025122                xQueuePeekFromISR
 .text.uxQueueMessagesWaiting
                0x000251f4       0x3c ./Source/FreeRtos/queue.o
                0x000251f4                uxQueueMessagesWaiting
 .text.uxQueueSpacesAvailable
                0x00025230       0x46 ./Source/FreeRtos/queue.o
                0x00025230                uxQueueSpacesAvailable
 .text.uxQueueMessagesWaitingFromISR
                0x00025276       0x3c ./Source/FreeRtos/queue.o
                0x00025276                uxQueueMessagesWaitingFromISR
 .text.vQueueDelete
                0x000252b2       0x3c ./Source/FreeRtos/queue.o
                0x000252b2                vQueueDelete
 .text.uxQueueGetQueueNumber
                0x000252ee       0x18 ./Source/FreeRtos/queue.o
                0x000252ee                uxQueueGetQueueNumber
 .text.vQueueSetQueueNumber
                0x00025306       0x1c ./Source/FreeRtos/queue.o
                0x00025306                vQueueSetQueueNumber
 .text.ucQueueGetQueueType
                0x00025322       0x1a ./Source/FreeRtos/queue.o
                0x00025322                ucQueueGetQueueType
 .text.prvGetDisinheritPriorityAfterTimeout
                0x0002533c       0x30 ./Source/FreeRtos/queue.o
 .text.prvCopyDataToQueue
                0x0002536c       0xd4 ./Source/FreeRtos/queue.o
 .text.prvCopyDataFromQueue
                0x00025440       0x4c ./Source/FreeRtos/queue.o
 .text.prvUnlockQueue
                0x0002548c       0xa4 ./Source/FreeRtos/queue.o
 .text.prvIsQueueEmpty
                0x00025530       0x2c ./Source/FreeRtos/queue.o
 .text.xQueueIsQueueEmptyFromISR
                0x0002555c       0x48 ./Source/FreeRtos/queue.o
                0x0002555c                xQueueIsQueueEmptyFromISR
 .text.prvIsQueueFull
                0x000255a4       0x30 ./Source/FreeRtos/queue.o
 .text.xQueueIsQueueFullFromISR
                0x000255d4       0x4c ./Source/FreeRtos/queue.o
                0x000255d4                xQueueIsQueueFullFromISR
 .text.vQueueAddToRegistry
                0x00025620       0x9c ./Source/FreeRtos/queue.o
                0x00025620                vQueueAddToRegistry
 .text.pcQueueGetName
                0x000256bc       0x68 ./Source/FreeRtos/queue.o
                0x000256bc                pcQueueGetName
 .text.vQueueUnregisterQueue
                0x00025724       0x70 ./Source/FreeRtos/queue.o
                0x00025724                vQueueUnregisterQueue
 .text.vQueueWaitForMessageRestricted
                0x00025794       0x68 ./Source/FreeRtos/queue.o
                0x00025794                vQueueWaitForMessageRestricted
 .text.xStreamBufferGenericCreate
                0x000257fc       0xce ./Source/FreeRtos/stream_buffer.o
                0x000257fc                xStreamBufferGenericCreate
 .text.vStreamBufferDelete
                0x000258ca       0x4e ./Source/FreeRtos/stream_buffer.o
                0x000258ca                vStreamBufferDelete
 .text.xStreamBufferReset
                0x00025918       0x8a ./Source/FreeRtos/stream_buffer.o
                0x00025918                xStreamBufferReset
 .text.xStreamBufferSetTriggerLevel
                0x000259a2       0x5c ./Source/FreeRtos/stream_buffer.o
                0x000259a2                xStreamBufferSetTriggerLevel
 .text.xStreamBufferSpacesAvailable
                0x000259fe       0x76 ./Source/FreeRtos/stream_buffer.o
                0x000259fe                xStreamBufferSpacesAvailable
 .text.xStreamBufferBytesAvailable
                0x00025a74       0x3a ./Source/FreeRtos/stream_buffer.o
                0x00025a74                xStreamBufferBytesAvailable
 .text.xStreamBufferSend
                0x00025aae      0x19a ./Source/FreeRtos/stream_buffer.o
                0x00025aae                xStreamBufferSend
 .text.xStreamBufferSendFromISR
                0x00025c48       0xe6 ./Source/FreeRtos/stream_buffer.o
                0x00025c48                xStreamBufferSendFromISR
 .text.prvWriteMessageToBuffer
                0x00025d2e       0x90 ./Source/FreeRtos/stream_buffer.o
 .text.xStreamBufferReceive
                0x00025dbe      0x130 ./Source/FreeRtos/stream_buffer.o
                0x00025dbe                xStreamBufferReceive
 .text.xStreamBufferNextMessageLengthBytes
                0x00025eee       0x88 ./Source/FreeRtos/stream_buffer.o
                0x00025eee                xStreamBufferNextMessageLengthBytes
 .text.xStreamBufferReceiveFromISR
                0x00025f76       0xde ./Source/FreeRtos/stream_buffer.o
                0x00025f76                xStreamBufferReceiveFromISR
 .text.prvReadMessageFromBuffer
                0x00026054       0x7a ./Source/FreeRtos/stream_buffer.o
 .text.xStreamBufferIsEmpty
                0x000260ce       0x50 ./Source/FreeRtos/stream_buffer.o
                0x000260ce                xStreamBufferIsEmpty
 .text.xStreamBufferIsFull
                0x0002611e       0x60 ./Source/FreeRtos/stream_buffer.o
                0x0002611e                xStreamBufferIsFull
 .text.xStreamBufferSendCompletedFromISR
                0x0002617e       0x8a ./Source/FreeRtos/stream_buffer.o
                0x0002617e                xStreamBufferSendCompletedFromISR
 .text.xStreamBufferReceiveCompletedFromISR
                0x00026208       0x8a ./Source/FreeRtos/stream_buffer.o
                0x00026208                xStreamBufferReceiveCompletedFromISR
 .text.prvWriteBytesToBuffer
                0x00026292       0xda ./Source/FreeRtos/stream_buffer.o
 .text.prvReadBytesFromBuffer
                0x0002636c       0xd4 ./Source/FreeRtos/stream_buffer.o
 .text.prvBytesInBuffer
                0x00026440       0x40 ./Source/FreeRtos/stream_buffer.o
 .text.prvInitialiseNewStreamBuffer
                0x00026480       0x66 ./Source/FreeRtos/stream_buffer.o
 .text.uxStreamBufferGetStreamBufferNumber
                0x000264e6       0x18 ./Source/FreeRtos/stream_buffer.o
                0x000264e6                uxStreamBufferGetStreamBufferNumber
 .text.vStreamBufferSetStreamBufferNumber
                0x000264fe       0x1c ./Source/FreeRtos/stream_buffer.o
                0x000264fe                vStreamBufferSetStreamBufferNumber
 .text.ucStreamBufferGetStreamBufferType
                0x0002651a       0x1e ./Source/FreeRtos/stream_buffer.o
                0x0002651a                ucStreamBufferGetStreamBufferType
 .text.xTaskCreate
                0x00026538       0x8c ./Source/FreeRtos/tasks.o
                0x00026538                xTaskCreate
 .text.prvInitialiseNewTask
                0x000265c4      0x11c ./Source/FreeRtos/tasks.o
 .text.prvAddNewTaskToReadyList
                0x000266e0      0x12c ./Source/FreeRtos/tasks.o
 .text.vTaskDelete
                0x0002680c      0x128 ./Source/FreeRtos/tasks.o
                0x0002680c                vTaskDelete
 .text.xTaskDelayUntil
                0x00026934       0xfc ./Source/FreeRtos/tasks.o
                0x00026934                xTaskDelayUntil
 .text.vTaskDelay
                0x00026a30       0x68 ./Source/FreeRtos/tasks.o
                0x00026a30                vTaskDelay
 .text.eTaskGetState
                0x00026a98       0xf4 ./Source/FreeRtos/tasks.o
                0x00026a98                eTaskGetState
 .text.uxTaskPriorityGet
                0x00026b8c       0x34 ./Source/FreeRtos/tasks.o
                0x00026b8c                uxTaskPriorityGet
 .text.uxTaskPriorityGetFromISR
                0x00026bc0       0x58 ./Source/FreeRtos/tasks.o
                0x00026bc0                uxTaskPriorityGetFromISR
 .text.vTaskPrioritySet
                0x00026c18      0x1a4 ./Source/FreeRtos/tasks.o
                0x00026c18                vTaskPrioritySet
 .text.vTaskSuspend
                0x00026dbc      0x140 ./Source/FreeRtos/tasks.o
                0x00026dbc                vTaskSuspend
 .text.prvTaskIsTaskSuspended
                0x00026efc       0x64 ./Source/FreeRtos/tasks.o
 .text.vTaskResume
                0x00026f60      0x10c ./Source/FreeRtos/tasks.o
                0x00026f60                vTaskResume
 .text.xTaskResumeFromISR
                0x0002706c      0x13c ./Source/FreeRtos/tasks.o
                0x0002706c                xTaskResumeFromISR
 .text.vTaskStartScheduler
                0x000271a8       0xa4 ./Source/FreeRtos/tasks.o
                0x000271a8                vTaskStartScheduler
 .text.vTaskEndScheduler
                0x0002724c       0x30 ./Source/FreeRtos/tasks.o
                0x0002724c                vTaskEndScheduler
 .text.vTaskSuspendAll
                0x0002727c       0x1c ./Source/FreeRtos/tasks.o
                0x0002727c                vTaskSuspendAll
 .text.xTaskResumeAll
                0x00027298      0x1f8 ./Source/FreeRtos/tasks.o
                0x00027298                xTaskResumeAll
 .text.xTaskGetTickCount
                0x00027490       0x20 ./Source/FreeRtos/tasks.o
                0x00027490                xTaskGetTickCount
 .text.xTaskGetTickCountFromISR
                0x000274b0       0x24 ./Source/FreeRtos/tasks.o
                0x000274b0                xTaskGetTickCountFromISR
 .text.uxTaskGetNumberOfTasks
                0x000274d4       0x18 ./Source/FreeRtos/tasks.o
                0x000274d4                uxTaskGetNumberOfTasks
 .text.pcTaskGetName
                0x000274ec       0x48 ./Source/FreeRtos/tasks.o
                0x000274ec                pcTaskGetName
 .text.uxTaskGetSystemState
                0x00027534      0x11c ./Source/FreeRtos/tasks.o
                0x00027534                uxTaskGetSystemState
 .text.xTaskCatchUpTicks
                0x00027650       0x58 ./Source/FreeRtos/tasks.o
                0x00027650                xTaskCatchUpTicks
 .text.xTaskIncrementTick
                0x000276a8      0x22c ./Source/FreeRtos/tasks.o
                0x000276a8                xTaskIncrementTick
 .text.vTaskSwitchContext
                0x000278d4      0x100 ./Source/FreeRtos/tasks.o
                0x000278d4                vTaskSwitchContext
 .text.vTaskPlaceOnEventList
                0x000279d4       0x48 ./Source/FreeRtos/tasks.o
                0x000279d4                vTaskPlaceOnEventList
 .text.vTaskPlaceOnUnorderedEventList
                0x00027a1c       0xac ./Source/FreeRtos/tasks.o
                0x00027a1c                vTaskPlaceOnUnorderedEventList
 .text.vTaskPlaceOnEventListRestricted
                0x00027ac8       0x8c ./Source/FreeRtos/tasks.o
                0x00027ac8                vTaskPlaceOnEventListRestricted
 .text.xTaskRemoveFromEventList
                0x00027b54      0x1ac ./Source/FreeRtos/tasks.o
                0x00027b54                xTaskRemoveFromEventList
 .text.vTaskRemoveFromUnorderedEventList
                0x00027d00      0x180 ./Source/FreeRtos/tasks.o
                0x00027d00                vTaskRemoveFromUnorderedEventList
 .text.vTaskSetTimeOutState
                0x00027e80       0x4c ./Source/FreeRtos/tasks.o
                0x00027e80                vTaskSetTimeOutState
 .text.vTaskInternalSetTimeOutState
                0x00027ecc       0x2c ./Source/FreeRtos/tasks.o
                0x00027ecc                vTaskInternalSetTimeOutState
 .text.xTaskCheckForTimeOut
                0x00027ef8       0xcc ./Source/FreeRtos/tasks.o
                0x00027ef8                xTaskCheckForTimeOut
 .text.vTaskMissedYield
                0x00027fc4       0x18 ./Source/FreeRtos/tasks.o
                0x00027fc4                vTaskMissedYield
 .text.uxTaskGetTaskNumber
                0x00027fdc       0x2c ./Source/FreeRtos/tasks.o
                0x00027fdc                uxTaskGetTaskNumber
 .text.vTaskSetTaskNumber
                0x00028008       0x26 ./Source/FreeRtos/tasks.o
                0x00028008                vTaskSetTaskNumber
 *fill*         0x0002802e        0x2 
 .text.prvIdleTask
                0x00028030       0x30 ./Source/FreeRtos/tasks.o
 .text.prvInitialiseTaskLists
                0x00028060       0x80 ./Source/FreeRtos/tasks.o
 .text.prvCheckTasksWaitingTermination
                0x000280e0       0x5c ./Source/FreeRtos/tasks.o
 .text.vTaskGetInfo
                0x0002813c       0xcc ./Source/FreeRtos/tasks.o
                0x0002813c                vTaskGetInfo
 .text.prvListTasksWithinSingleList
                0x00028208       0xa4 ./Source/FreeRtos/tasks.o
 .text.prvTaskCheckFreeStackSpace
                0x000282ac       0x38 ./Source/FreeRtos/tasks.o
 .text.prvDeleteTCB
                0x000282e4       0x20 ./Source/FreeRtos/tasks.o
 .text.prvResetNextTaskUnblockTime
                0x00028304       0x38 ./Source/FreeRtos/tasks.o
 .text.xTaskGetCurrentTaskHandle
                0x0002833c       0x20 ./Source/FreeRtos/tasks.o
                0x0002833c                xTaskGetCurrentTaskHandle
 .text.xTaskGetSchedulerState
                0x0002835c       0x3c ./Source/FreeRtos/tasks.o
                0x0002835c                xTaskGetSchedulerState
 .text.xTaskPriorityInherit
                0x00028398      0x13c ./Source/FreeRtos/tasks.o
                0x00028398                xTaskPriorityInherit
 .text.xTaskPriorityDisinherit
                0x000284d4      0x148 ./Source/FreeRtos/tasks.o
                0x000284d4                xTaskPriorityDisinherit
 .text.vTaskPriorityDisinheritAfterTimeout
                0x0002861c      0x170 ./Source/FreeRtos/tasks.o
                0x0002861c                vTaskPriorityDisinheritAfterTimeout
 .text.uxTaskResetEventItemValue
                0x0002878c       0x30 ./Source/FreeRtos/tasks.o
                0x0002878c                uxTaskResetEventItemValue
 .text.pvTaskIncrementMutexHeldCount
                0x000287bc       0x28 ./Source/FreeRtos/tasks.o
                0x000287bc                pvTaskIncrementMutexHeldCount
 .text.ulTaskGenericNotifyTake
                0x000287e4       0xd0 ./Source/FreeRtos/tasks.o
                0x000287e4                ulTaskGenericNotifyTake
 .text.xTaskGenericNotifyWait
                0x000288b4      0x100 ./Source/FreeRtos/tasks.o
                0x000288b4                xTaskGenericNotifyWait
 .text.xTaskGenericNotify
                0x000289b4      0x244 ./Source/FreeRtos/tasks.o
                0x000289b4                xTaskGenericNotify
 .text.xTaskGenericNotifyFromISR
                0x00028bf8      0x2b8 ./Source/FreeRtos/tasks.o
                0x00028bf8                xTaskGenericNotifyFromISR
 .text.vTaskGenericNotifyGiveFromISR
                0x00028eb0      0x20c ./Source/FreeRtos/tasks.o
                0x00028eb0                vTaskGenericNotifyGiveFromISR
 .text.xTaskGenericNotifyStateClear
                0x000290bc       0x74 ./Source/FreeRtos/tasks.o
                0x000290bc                xTaskGenericNotifyStateClear
 .text.ulTaskGenericNotifyValueClear
                0x00029130       0x5c ./Source/FreeRtos/tasks.o
                0x00029130                ulTaskGenericNotifyValueClear
 .text.prvAddCurrentTaskToDelayedList
                0x0002918c      0x100 ./Source/FreeRtos/tasks.o
 .text.vApplicationMallocFailedHook
                0x0002928c       0x28 ./Source/FreeRtos/tasks.o
                0x0002928c                vApplicationMallocFailedHook
 .text.vApplicationStackOverflowHook
                0x000292b4       0x2c ./Source/FreeRtos/tasks.o
                0x000292b4                vApplicationStackOverflowHook
 .text.xTimerCreateTimerTask
                0x000292e0       0x64 ./Source/FreeRtos/timers.o
                0x000292e0                xTimerCreateTimerTask
 .text.xTimerCreate
                0x00029344       0x42 ./Source/FreeRtos/timers.o
                0x00029344                xTimerCreate
 .text.prvInitialiseNewTimer
                0x00029386       0x70 ./Source/FreeRtos/timers.o
 *fill*         0x000293f6        0x2 
 .text.xTimerGenericCommand
                0x000293f8       0x9c ./Source/FreeRtos/timers.o
                0x000293f8                xTimerGenericCommand
 .text.xTimerGetTimerDaemonTaskHandle
                0x00029494       0x38 ./Source/FreeRtos/timers.o
                0x00029494                xTimerGetTimerDaemonTaskHandle
 .text.xTimerGetPeriod
                0x000294cc       0x38 ./Source/FreeRtos/timers.o
                0x000294cc                xTimerGetPeriod
 .text.vTimerSetReloadMode
                0x00029504       0x66 ./Source/FreeRtos/timers.o
                0x00029504                vTimerSetReloadMode
 .text.xTimerGetReloadMode
                0x0002956a       0x52 ./Source/FreeRtos/timers.o
                0x0002956a                xTimerGetReloadMode
 .text.uxTimerGetReloadMode
                0x000295bc       0x18 ./Source/FreeRtos/timers.o
                0x000295bc                uxTimerGetReloadMode
 .text.xTimerGetExpiryTime
                0x000295d4       0x3c ./Source/FreeRtos/timers.o
                0x000295d4                xTimerGetExpiryTime
 .text.pcTimerGetName
                0x00029610       0x38 ./Source/FreeRtos/timers.o
                0x00029610                pcTimerGetName
 .text.prvReloadTimer
                0x00029648       0x42 ./Source/FreeRtos/timers.o
 *fill*         0x0002968a        0x2 
 .text.prvProcessExpiredTimer
                0x0002968c       0x60 ./Source/FreeRtos/timers.o
 .text.prvTimerTask
                0x000296ec       0x24 ./Source/FreeRtos/timers.o
 .text.prvProcessTimerOrBlockTask
                0x00029710       0x9c ./Source/FreeRtos/timers.o
 .text.prvGetNextExpireTime
                0x000297ac       0x48 ./Source/FreeRtos/timers.o
 .text.prvSampleTimeNow
                0x000297f4       0x40 ./Source/FreeRtos/timers.o
 .text.prvInsertTimerInActiveList
                0x00029834       0x84 ./Source/FreeRtos/timers.o
 .text.prvProcessReceivedCommands
                0x000298b8      0x17c ./Source/FreeRtos/timers.o
 .text.prvSwitchTimerLists
                0x00029a34       0x4c ./Source/FreeRtos/timers.o
 .text.prvCheckForValidListAndQueue
                0x00029a80       0x6c ./Source/FreeRtos/timers.o
 .text.xTimerIsTimerActive
                0x00029aec       0x52 ./Source/FreeRtos/timers.o
                0x00029aec                xTimerIsTimerActive
 .text.pvTimerGetTimerID
                0x00029b3e       0x40 ./Source/FreeRtos/timers.o
                0x00029b3e                pvTimerGetTimerID
 .text.vTimerSetTimerID
                0x00029b7e       0x40 ./Source/FreeRtos/timers.o
                0x00029b7e                vTimerSetTimerID
 .text.uxTimerGetTimerNumber
                0x00029bbe       0x18 ./Source/FreeRtos/timers.o
                0x00029bbe                uxTimerGetTimerNumber
 .text.vTimerSetTimerNumber
                0x00029bd6       0x1c ./Source/FreeRtos/timers.o
                0x00029bd6                vTimerSetTimerNumber
 *fill*         0x00029bf2        0x2 
 .text.pxPortInitialiseStack
                0x00029bf4       0x68 ./Source/FreeRtos/portable/GCC/ARM_CM4F/port.o
                0x00029bf4                pxPortInitialiseStack
 .text.prvTaskExitError
                0x00029c5c       0x58 ./Source/FreeRtos/portable/GCC/ARM_CM4F/port.o
 *fill*         0x00029cb4        0xc 
 .text.vPortSVCHandler
                0x00029cc0       0x28 ./Source/FreeRtos/portable/GCC/ARM_CM4F/port.o
                0x00029cc0                vPortSVCHandler
 .text.prvPortStartFirstTask
                0x00029ce8       0x2c ./Source/FreeRtos/portable/GCC/ARM_CM4F/port.o
 .text.xPortStartScheduler
                0x00029d14      0x144 ./Source/FreeRtos/portable/GCC/ARM_CM4F/port.o
                0x00029d14                xPortStartScheduler
 .text.vPortEndScheduler
                0x00029e58       0x38 ./Source/FreeRtos/portable/GCC/ARM_CM4F/port.o
                0x00029e58                vPortEndScheduler
 .text.vPortEnterCritical
                0x00029e90       0x60 ./Source/FreeRtos/portable/GCC/ARM_CM4F/port.o
                0x00029e90                vPortEnterCritical
 .text.vPortExitCritical
                0x00029ef0       0x54 ./Source/FreeRtos/portable/GCC/ARM_CM4F/port.o
                0x00029ef0                vPortExitCritical
 *fill*         0x00029f44        0xc 
 .text.PendSV_Handler_Veneer
                0x00029f50       0x68 ./Source/FreeRtos/portable/GCC/ARM_CM4F/port.o
                0x00029f50                PendSV_Handler_Veneer
 .text.xPortSysTickHandler
                0x00029fb8       0x44 ./Source/FreeRtos/portable/GCC/ARM_CM4F/port.o
                0x00029fb8                xPortSysTickHandler
 .text.vPortSetupTimerInterrupt
                0x00029ffc       0x48 ./Source/FreeRtos/portable/GCC/ARM_CM4F/port.o
                0x00029ffc                vPortSetupTimerInterrupt
 .text.vPortEnableVFP
                0x0002a044       0x18 ./Source/FreeRtos/portable/GCC/ARM_CM4F/port.o
 .text.vPortValidateInterruptPriority
                0x0002a05c       0x80 ./Source/FreeRtos/portable/GCC/ARM_CM4F/port.o
                0x0002a05c                vPortValidateInterruptPriority
 .text.pvPortMalloc
                0x0002a0dc      0x148 ./Source/FreeRtos/portable/MemMang/heap_2.o
                0x0002a0dc                pvPortMalloc
 .text.vPortFree
                0x0002a224       0xd4 ./Source/FreeRtos/portable/MemMang/heap_2.o
                0x0002a224                vPortFree
 .text.xPortGetFreeHeapSize
                0x0002a2f8       0x18 ./Source/FreeRtos/portable/MemMang/heap_2.o
                0x0002a2f8                xPortGetFreeHeapSize
 .text.vPortInitialiseBlocks
                0x0002a310        0xe ./Source/FreeRtos/portable/MemMang/heap_2.o
                0x0002a310                vPortInitialiseBlocks
 .text.pvPortCalloc
                0x0002a31e       0x60 ./Source/FreeRtos/portable/MemMang/heap_2.o
                0x0002a31e                pvPortCalloc
 *fill*         0x0002a37e        0x2 
 .text.prvHeapInit
                0x0002a380       0x54 ./Source/FreeRtos/portable/MemMang/heap_2.o
 .text.MCP3208  0x0002a3d4      0x118 ./Source/Middleware/MCP3208/MCP3208.o
                0x0002a3d4                MCP3208
 .text.ssd1306_init
                0x0002a4ec       0xd6 ./Source/Middleware/OLED_SSD1306/SSD1306.o
                0x0002a4ec                ssd1306_init
 .text.ssd1306_command
                0x0002a5c2       0x1e ./Source/Middleware/OLED_SSD1306/SSD1306.o
                0x0002a5c2                ssd1306_command
 .text.ssd1306_data
                0x0002a5e0       0x1e ./Source/Middleware/OLED_SSD1306/SSD1306.o
                0x0002a5e0                ssd1306_data
 *fill*         0x0002a5fe        0x2 
 .text.ssd1306_setcursor
                0x0002a600       0x64 ./Source/Middleware/OLED_SSD1306/SSD1306.o
                0x0002a600                ssd1306_setcursor
 .text.ssd1306_Print_String
                0x0002a664       0xe8 ./Source/Middleware/OLED_SSD1306/SSD1306.o
                0x0002a664                ssd1306_Print_String
 .text.ssd1306_clear
                0x0002a74c       0x34 ./Source/Middleware/OLED_SSD1306/SSD1306.o
                0x0002a74c                ssd1306_clear
 .text.ssd1306_refresh
                0x0002a780       0x3c ./Source/Middleware/OLED_SSD1306/SSD1306.o
                0x0002a780                ssd1306_refresh
 .text.ssd1306_buffer_flush
                0x0002a7bc       0x1e ./Source/Middleware/OLED_SSD1306/SSD1306.o
                0x0002a7bc                ssd1306_buffer_flush
 *fill*         0x0002a7da        0x2 
 .text.ssd1306_draw_pixel
                0x0002a7dc       0xa8 ./Source/Middleware/OLED_SSD1306/SSD1306.o
                0x0002a7dc                ssd1306_draw_pixel
 .text.ssd1306_draw_line
                0x0002a884      0x110 ./Source/Middleware/OLED_SSD1306/SSD1306.o
                0x0002a884                ssd1306_draw_line
 .text.ssd1306_set_text_size
                0x0002a994       0x34 ./Source/Middleware/OLED_SSD1306/SSD1306.o
                0x0002a994                ssd1306_set_text_size
 .text.ssd1306_shiva_logo
                0x0002a9c8       0x3c ./Source/Middleware/OLED_SSD1306/SSD1306.o
                0x0002a9c8                ssd1306_shiva_logo
 .text.ssd1306_fill_rect
                0x0002aa04       0x78 ./Source/Middleware/OLED_SSD1306/SSD1306.o
                0x0002aa04                ssd1306_fill_rect
 .text.ssd1306_DrawRect
                0x0002aa7c       0xa8 ./Source/Middleware/OLED_SSD1306/SSD1306.o
                0x0002aa7c                ssd1306_DrawRect
 .text.ssd1306_SetDrawWindow
                0x0002ab24       0x5a ./Source/Middleware/OLED_SSD1306/SSD1306.o
                0x0002ab24                ssd1306_SetDrawWindow
 .text.ssd1306_set_display_mode
                0x0002ab7e       0x40 ./Source/Middleware/OLED_SSD1306/SSD1306.o
                0x0002ab7e                ssd1306_set_display_mode
 .text.ssd1306_DrawCircle
                0x0002abbe      0x182 ./Source/Middleware/OLED_SSD1306/SSD1306.o
                0x0002abbe                ssd1306_DrawCircle
 .text.ssd1306_clear_refresh
                0x0002ad40       0x4e ./Source/Middleware/OLED_SSD1306/SSD1306.o
                0x0002ad40                ssd1306_clear_refresh
 .text.process_get_data
                0x0002ad8e       0x26 ./Source/Middleware/RTC_DS3231/DS3231.o
 .text.process_set_data
                0x0002adb4       0x34 ./Source/Middleware/RTC_DS3231/DS3231.o
 .text.ds3231_read_sec
                0x0002ade8       0x2a ./Source/Middleware/RTC_DS3231/DS3231.o
                0x0002ade8                ds3231_read_sec
 .text.ds3231_write_sec
                0x0002ae12       0x2a ./Source/Middleware/RTC_DS3231/DS3231.o
                0x0002ae12                ds3231_write_sec
 .text.ds3231_read_min
                0x0002ae3c       0x2a ./Source/Middleware/RTC_DS3231/DS3231.o
                0x0002ae3c                ds3231_read_min
 .text.ds3231_write_min
                0x0002ae66       0x2a ./Source/Middleware/RTC_DS3231/DS3231.o
                0x0002ae66                ds3231_write_min
 .text.ds3231_read_hrs
                0x0002ae90       0x2a ./Source/Middleware/RTC_DS3231/DS3231.o
                0x0002ae90                ds3231_read_hrs
 .text.ds3231_write_hrs
                0x0002aeba       0x2a ./Source/Middleware/RTC_DS3231/DS3231.o
                0x0002aeba                ds3231_write_hrs
 .text.exit     0x0002aee4       0x20 c:/ti/ccs1220/ccs/tools/compiler/gcc-arm-none-eabi-9-2019-q4-major/bin/../lib/gcc/arm-none-eabi/9.2.1/../../../../arm-none-eabi/lib/thumb/v7e-m/nofp\libc.a(lib_a-exit.o)
                0x0002aee4                exit
 .text.__libc_init_array
                0x0002af04       0x48 c:/ti/ccs1220/ccs/tools/compiler/gcc-arm-none-eabi-9-2019-q4-major/bin/../lib/gcc/arm-none-eabi/9.2.1/../../../../arm-none-eabi/lib/thumb/v7e-m/nofp\libc.a(lib_a-init.o)
                0x0002af04                __libc_init_array
 .text.memset   0x0002af4c       0xa0 c:/ti/ccs1220/ccs/tools/compiler/gcc-arm-none-eabi-9-2019-q4-major/bin/../lib/gcc/arm-none-eabi/9.2.1/../../../../arm-none-eabi/lib/thumb/v7e-m/nofp\libc.a(lib_a-memset.o)
                0x0002af4c                memset
 .text._printf_r
                0x0002afec       0x20 c:/ti/ccs1220/ccs/tools/compiler/gcc-arm-none-eabi-9-2019-q4-major/bin/../lib/gcc/arm-none-eabi/9.2.1/../../../../arm-none-eabi/lib/thumb/v7e-m/nofp\libc.a(lib_a-printf.o)
                0x0002afec                _printf_r
 .text.printf   0x0002b00c       0x28 c:/ti/ccs1220/ccs/tools/compiler/gcc-arm-none-eabi-9-2019-q4-major/bin/../lib/gcc/arm-none-eabi/9.2.1/../../../../arm-none-eabi/lib/thumb/v7e-m/nofp\libc.a(lib_a-printf.o)
                0x0002b00c                printf
 .text._puts_r  0x0002b034       0x9c c:/ti/ccs1220/ccs/tools/compiler/gcc-arm-none-eabi-9-2019-q4-major/bin/../lib/gcc/arm-none-eabi/9.2.1/../../../../arm-none-eabi/lib/thumb/v7e-m/nofp\libc.a(lib_a-puts.o)
                0x0002b034                _puts_r
 .text.puts     0x0002b0d0       0x10 c:/ti/ccs1220/ccs/tools/compiler/gcc-arm-none-eabi-9-2019-q4-major/bin/../lib/gcc/arm-none-eabi/9.2.1/../../../../arm-none-eabi/lib/thumb/v7e-m/nofp\libc.a(lib_a-puts.o)
                0x0002b0d0                puts
 .text._vfprintf_r
                0x0002b0e0     0x1b84 c:/ti/ccs1220/ccs/tools/compiler/gcc-arm-none-eabi-9-2019-q4-major/bin/../lib/gcc/arm-none-eabi/9.2.1/../../../../arm-none-eabi/lib/thumb/v7e-m/nofp\libc.a(lib_a-vfprintf.o)
                0x0002b0e0                _vfprintf_r
 .text.vfprintf
                0x0002cc64       0x18 c:/ti/ccs1220/ccs/tools/compiler/gcc-arm-none-eabi-9-2019-q4-major/bin/../lib/gcc/arm-none-eabi/9.2.1/../../../../arm-none-eabi/lib/thumb/v7e-m/nofp\libc.a(lib_a-vfprintf.o)
                0x0002cc64                vfprintf
 .text.__sbprintf
                0x0002cc7c       0x84 c:/ti/ccs1220/ccs/tools/compiler/gcc-arm-none-eabi-9-2019-q4-major/bin/../lib/gcc/arm-none-eabi/9.2.1/../../../../arm-none-eabi/lib/thumb/v7e-m/nofp\libc.a(lib_a-vfprintf.o)
 .text.__swsetup_r
                0x0002cd00       0xd0 c:/ti/ccs1220/ccs/tools/compiler/gcc-arm-none-eabi-9-2019-q4-major/bin/../lib/gcc/arm-none-eabi/9.2.1/../../../../arm-none-eabi/lib/thumb/v7e-m/nofp\libc.a(lib_a-wsetup.o)
                0x0002cd00                __swsetup_r
 .text.startup.register_fini
                0x0002cdd0       0x14 c:/ti/ccs1220/ccs/tools/compiler/gcc-arm-none-eabi-9-2019-q4-major/bin/../lib/gcc/arm-none-eabi/9.2.1/../../../../arm-none-eabi/lib/thumb/v7e-m/nofp\libc.a(lib_a-__call_atexit.o)
 .text.__call_exitprocs
                0x0002cde4       0xc4 c:/ti/ccs1220/ccs/tools/compiler/gcc-arm-none-eabi-9-2019-q4-major/bin/../lib/gcc/arm-none-eabi/9.2.1/../../../../arm-none-eabi/lib/thumb/v7e-m/nofp\libc.a(lib_a-__call_atexit.o)
                0x0002cde4                __call_exitprocs
 .text.atexit   0x0002cea8        0xc c:/ti/ccs1220/ccs/tools/compiler/gcc-arm-none-eabi-9-2019-q4-major/bin/../lib/gcc/arm-none-eabi/9.2.1/../../../../arm-none-eabi/lib/thumb/v7e-m/nofp\libc.a(lib_a-atexit.o)
                0x0002cea8                atexit
 .text.quorem   0x0002ceb4      0x11c c:/ti/ccs1220/ccs/tools/compiler/gcc-arm-none-eabi-9-2019-q4-major/bin/../lib/gcc/arm-none-eabi/9.2.1/../../../../arm-none-eabi/lib/thumb/v7e-m/nofp\libc.a(lib_a-dtoa.o)
 .text._dtoa_r  0x0002cfd0      0xeb8 c:/ti/ccs1220/ccs/tools/compiler/gcc-arm-none-eabi-9-2019-q4-major/bin/../lib/gcc/arm-none-eabi/9.2.1/../../../../arm-none-eabi/lib/thumb/v7e-m/nofp\libc.a(lib_a-dtoa.o)
                0x0002cfd0                _dtoa_r
 .text.__sflush_r
                0x0002de88      0x130 c:/ti/ccs1220/ccs/tools/compiler/gcc-arm-none-eabi-9-2019-q4-major/bin/../lib/gcc/arm-none-eabi/9.2.1/../../../../arm-none-eabi/lib/thumb/v7e-m/nofp\libc.a(lib_a-fflush.o)
                0x0002de88                __sflush_r
 .text._fflush_r
                0x0002dfb8       0x5c c:/ti/ccs1220/ccs/tools/compiler/gcc-arm-none-eabi-9-2019-q4-major/bin/../lib/gcc/arm-none-eabi/9.2.1/../../../../arm-none-eabi/lib/thumb/v7e-m/nofp\libc.a(lib_a-fflush.o)
                0x0002dfb8                _fflush_r
 .text.fflush   0x0002e014       0x24 c:/ti/ccs1220/ccs/tools/compiler/gcc-arm-none-eabi-9-2019-q4-major/bin/../lib/gcc/arm-none-eabi/9.2.1/../../../../arm-none-eabi/lib/thumb/v7e-m/nofp\libc.a(lib_a-fflush.o)
                0x0002e014                fflush
 .text.std      0x0002e038       0x50 c:/ti/ccs1220/ccs/tools/compiler/gcc-arm-none-eabi-9-2019-q4-major/bin/../lib/gcc/arm-none-eabi/9.2.1/../../../../arm-none-eabi/lib/thumb/v7e-m/nofp\libc.a(lib_a-findfp.o)
 .text._cleanup_r
                0x0002e088        0xc c:/ti/ccs1220/ccs/tools/compiler/gcc-arm-none-eabi-9-2019-q4-major/bin/../lib/gcc/arm-none-eabi/9.2.1/../../../../arm-none-eabi/lib/thumb/v7e-m/nofp\libc.a(lib_a-findfp.o)
                0x0002e088                _cleanup_r
 .text.__fp_lock
                0x0002e094       0x1c c:/ti/ccs1220/ccs/tools/compiler/gcc-arm-none-eabi-9-2019-q4-major/bin/../lib/gcc/arm-none-eabi/9.2.1/../../../../arm-none-eabi/lib/thumb/v7e-m/nofp\libc.a(lib_a-findfp.o)
 .text.__fp_unlock
                0x0002e0b0       0x1c c:/ti/ccs1220/ccs/tools/compiler/gcc-arm-none-eabi-9-2019-q4-major/bin/../lib/gcc/arm-none-eabi/9.2.1/../../../../arm-none-eabi/lib/thumb/v7e-m/nofp\libc.a(lib_a-findfp.o)
 .text.__sfmoreglue
                0x0002e0cc       0x30 c:/ti/ccs1220/ccs/tools/compiler/gcc-arm-none-eabi-9-2019-q4-major/bin/../lib/gcc/arm-none-eabi/9.2.1/../../../../arm-none-eabi/lib/thumb/v7e-m/nofp\libc.a(lib_a-findfp.o)
                0x0002e0cc                __sfmoreglue
 .text._cleanup
                0x0002e0fc       0x14 c:/ti/ccs1220/ccs/tools/compiler/gcc-arm-none-eabi-9-2019-q4-major/bin/../lib/gcc/arm-none-eabi/9.2.1/../../../../arm-none-eabi/lib/thumb/v7e-m/nofp\libc.a(lib_a-findfp.o)
                0x0002e0fc                _cleanup
 .text.__sinit  0x0002e110       0x54 c:/ti/ccs1220/ccs/tools/compiler/gcc-arm-none-eabi-9-2019-q4-major/bin/../lib/gcc/arm-none-eabi/9.2.1/../../../../arm-none-eabi/lib/thumb/v7e-m/nofp\libc.a(lib_a-findfp.o)
                0x0002e110                __sinit
 .text.__sfp    0x0002e164       0xa4 c:/ti/ccs1220/ccs/tools/compiler/gcc-arm-none-eabi-9-2019-q4-major/bin/../lib/gcc/arm-none-eabi/9.2.1/../../../../arm-none-eabi/lib/thumb/v7e-m/nofp\libc.a(lib_a-findfp.o)
                0x0002e164                __sfp
 .text.__sfp_lock_acquire
                0x0002e208        0xc c:/ti/ccs1220/ccs/tools/compiler/gcc-arm-none-eabi-9-2019-q4-major/bin/../lib/gcc/arm-none-eabi/9.2.1/../../../../arm-none-eabi/lib/thumb/v7e-m/nofp\libc.a(lib_a-findfp.o)
                0x0002e208                __sfp_lock_acquire
 .text.__sfp_lock_release
                0x0002e214        0xc c:/ti/ccs1220/ccs/tools/compiler/gcc-arm-none-eabi-9-2019-q4-major/bin/../lib/gcc/arm-none-eabi/9.2.1/../../../../arm-none-eabi/lib/thumb/v7e-m/nofp\libc.a(lib_a-findfp.o)
                0x0002e214                __sfp_lock_release
 .text.__sinit_lock_acquire
                0x0002e220        0xc c:/ti/ccs1220/ccs/tools/compiler/gcc-arm-none-eabi-9-2019-q4-major/bin/../lib/gcc/arm-none-eabi/9.2.1/../../../../arm-none-eabi/lib/thumb/v7e-m/nofp\libc.a(lib_a-findfp.o)
                0x0002e220                __sinit_lock_acquire
 .text.__sinit_lock_release
                0x0002e22c        0xc c:/ti/ccs1220/ccs/tools/compiler/gcc-arm-none-eabi-9-2019-q4-major/bin/../lib/gcc/arm-none-eabi/9.2.1/../../../../arm-none-eabi/lib/thumb/v7e-m/nofp\libc.a(lib_a-findfp.o)
                0x0002e22c                __sinit_lock_release
 .text.__fp_lock_all
                0x0002e238       0x24 c:/ti/ccs1220/ccs/tools/compiler/gcc-arm-none-eabi-9-2019-q4-major/bin/../lib/gcc/arm-none-eabi/9.2.1/../../../../arm-none-eabi/lib/thumb/v7e-m/nofp\libc.a(lib_a-findfp.o)
                0x0002e238                __fp_lock_all
 .text.__fp_unlock_all
                0x0002e25c       0x24 c:/ti/ccs1220/ccs/tools/compiler/gcc-arm-none-eabi-9-2019-q4-major/bin/../lib/gcc/arm-none-eabi/9.2.1/../../../../arm-none-eabi/lib/thumb/v7e-m/nofp\libc.a(lib_a-findfp.o)
                0x0002e25c                __fp_unlock_all
 .text.__libc_fini_array
                0x0002e280       0x2c c:/ti/ccs1220/ccs/tools/compiler/gcc-arm-none-eabi-9-2019-q4-major/bin/../lib/gcc/arm-none-eabi/9.2.1/../../../../arm-none-eabi/lib/thumb/v7e-m/nofp\libc.a(lib_a-fini.o)
                0x0002e280                __libc_fini_array
 .text._malloc_trim_r
                0x0002e2ac       0xa0 c:/ti/ccs1220/ccs/tools/compiler/gcc-arm-none-eabi-9-2019-q4-major/bin/../lib/gcc/arm-none-eabi/9.2.1/../../../../arm-none-eabi/lib/thumb/v7e-m/nofp\libc.a(lib_a-freer.o)
                0x0002e2ac                _malloc_trim_r
 .text._free_r  0x0002e34c      0x208 c:/ti/ccs1220/ccs/tools/compiler/gcc-arm-none-eabi-9-2019-q4-major/bin/../lib/gcc/arm-none-eabi/9.2.1/../../../../arm-none-eabi/lib/thumb/v7e-m/nofp\libc.a(lib_a-freer.o)
                0x0002e34c                _free_r
 .text.__sfvwrite_r
                0x0002e554      0x2e0 c:/ti/ccs1220/ccs/tools/compiler/gcc-arm-none-eabi-9-2019-q4-major/bin/../lib/gcc/arm-none-eabi/9.2.1/../../../../arm-none-eabi/lib/thumb/v7e-m/nofp\libc.a(lib_a-fvwrite.o)
                0x0002e554                __sfvwrite_r
 .text._fwalk   0x0002e834       0x40 c:/ti/ccs1220/ccs/tools/compiler/gcc-arm-none-eabi-9-2019-q4-major/bin/../lib/gcc/arm-none-eabi/9.2.1/../../../../arm-none-eabi/lib/thumb/v7e-m/nofp\libc.a(lib_a-fwalk.o)
                0x0002e834                _fwalk
 .text._fwalk_reent
                0x0002e874       0x48 c:/ti/ccs1220/ccs/tools/compiler/gcc-arm-none-eabi-9-2019-q4-major/bin/../lib/gcc/arm-none-eabi/9.2.1/../../../../arm-none-eabi/lib/thumb/v7e-m/nofp\libc.a(lib_a-fwalk.o)
                0x0002e874                _fwalk_reent
 .text.__localeconv_l
                0x0002e8bc        0x4 c:/ti/ccs1220/ccs/tools/compiler/gcc-arm-none-eabi-9-2019-q4-major/bin/../lib/gcc/arm-none-eabi/9.2.1/../../../../arm-none-eabi/lib/thumb/v7e-m/nofp\libc.a(lib_a-localeconv.o)
                0x0002e8bc                __localeconv_l
 .text._localeconv_r
                0x0002e8c0        0x8 c:/ti/ccs1220/ccs/tools/compiler/gcc-arm-none-eabi-9-2019-q4-major/bin/../lib/gcc/arm-none-eabi/9.2.1/../../../../arm-none-eabi/lib/thumb/v7e-m/nofp\libc.a(lib_a-localeconv.o)
                0x0002e8c0                _localeconv_r
 .text.localeconv
                0x0002e8c8        0x8 c:/ti/ccs1220/ccs/tools/compiler/gcc-arm-none-eabi-9-2019-q4-major/bin/../lib/gcc/arm-none-eabi/9.2.1/../../../../arm-none-eabi/lib/thumb/v7e-m/nofp\libc.a(lib_a-localeconv.o)
                0x0002e8c8                localeconv
 .text.__retarget_lock_init
                0x0002e8d0        0x4 c:/ti/ccs1220/ccs/tools/compiler/gcc-arm-none-eabi-9-2019-q4-major/bin/../lib/gcc/arm-none-eabi/9.2.1/../../../../arm-none-eabi/lib/thumb/v7e-m/nofp\libc.a(lib_a-lock.o)
                0x0002e8d0                __retarget_lock_init
 .text.__retarget_lock_init_recursive
                0x0002e8d4        0x4 c:/ti/ccs1220/ccs/tools/compiler/gcc-arm-none-eabi-9-2019-q4-major/bin/../lib/gcc/arm-none-eabi/9.2.1/../../../../arm-none-eabi/lib/thumb/v7e-m/nofp\libc.a(lib_a-lock.o)
                0x0002e8d4                __retarget_lock_init_recursive
 .text.__retarget_lock_close
                0x0002e8d8        0x4 c:/ti/ccs1220/ccs/tools/compiler/gcc-arm-none-eabi-9-2019-q4-major/bin/../lib/gcc/arm-none-eabi/9.2.1/../../../../arm-none-eabi/lib/thumb/v7e-m/nofp\libc.a(lib_a-lock.o)
                0x0002e8d8                __retarget_lock_close
 .text.__retarget_lock_close_recursive
                0x0002e8dc        0x4 c:/ti/ccs1220/ccs/tools/compiler/gcc-arm-none-eabi-9-2019-q4-major/bin/../lib/gcc/arm-none-eabi/9.2.1/../../../../arm-none-eabi/lib/thumb/v7e-m/nofp\libc.a(lib_a-lock.o)
                0x0002e8dc                __retarget_lock_close_recursive
 .text.__retarget_lock_acquire
                0x0002e8e0        0x4 c:/ti/ccs1220/ccs/tools/compiler/gcc-arm-none-eabi-9-2019-q4-major/bin/../lib/gcc/arm-none-eabi/9.2.1/../../../../arm-none-eabi/lib/thumb/v7e-m/nofp\libc.a(lib_a-lock.o)
                0x0002e8e0                __retarget_lock_acquire
 .text.__retarget_lock_acquire_recursive
                0x0002e8e4        0x4 c:/ti/ccs1220/ccs/tools/compiler/gcc-arm-none-eabi-9-2019-q4-major/bin/../lib/gcc/arm-none-eabi/9.2.1/../../../../arm-none-eabi/lib/thumb/v7e-m/nofp\libc.a(lib_a-lock.o)
                0x0002e8e4                __retarget_lock_acquire_recursive
 .text.__retarget_lock_try_acquire
                0x0002e8e8        0x4 c:/ti/ccs1220/ccs/tools/compiler/gcc-arm-none-eabi-9-2019-q4-major/bin/../lib/gcc/arm-none-eabi/9.2.1/../../../../arm-none-eabi/lib/thumb/v7e-m/nofp\libc.a(lib_a-lock.o)
                0x0002e8e8                __retarget_lock_try_acquire
 .text.__retarget_lock_try_acquire_recursive
                0x0002e8ec        0x4 c:/ti/ccs1220/ccs/tools/compiler/gcc-arm-none-eabi-9-2019-q4-major/bin/../lib/gcc/arm-none-eabi/9.2.1/../../../../arm-none-eabi/lib/thumb/v7e-m/nofp\libc.a(lib_a-lock.o)
                0x0002e8ec                __retarget_lock_try_acquire_recursive
 .text.__retarget_lock_release
                0x0002e8f0        0x4 c:/ti/ccs1220/ccs/tools/compiler/gcc-arm-none-eabi-9-2019-q4-major/bin/../lib/gcc/arm-none-eabi/9.2.1/../../../../arm-none-eabi/lib/thumb/v7e-m/nofp\libc.a(lib_a-lock.o)
                0x0002e8f0                __retarget_lock_release
 .text.__retarget_lock_release_recursive
                0x0002e8f4        0x4 c:/ti/ccs1220/ccs/tools/compiler/gcc-arm-none-eabi-9-2019-q4-major/bin/../lib/gcc/arm-none-eabi/9.2.1/../../../../arm-none-eabi/lib/thumb/v7e-m/nofp\libc.a(lib_a-lock.o)
                0x0002e8f4                __retarget_lock_release_recursive
 .text.__swhatbuf_r
                0x0002e8f8       0x5c c:/ti/ccs1220/ccs/tools/compiler/gcc-arm-none-eabi-9-2019-q4-major/bin/../lib/gcc/arm-none-eabi/9.2.1/../../../../arm-none-eabi/lib/thumb/v7e-m/nofp\libc.a(lib_a-makebuf.o)
                0x0002e8f8                __swhatbuf_r
 .text.__smakebuf_r
                0x0002e954       0x98 c:/ti/ccs1220/ccs/tools/compiler/gcc-arm-none-eabi-9-2019-q4-major/bin/../lib/gcc/arm-none-eabi/9.2.1/../../../../arm-none-eabi/lib/thumb/v7e-m/nofp\libc.a(lib_a-makebuf.o)
                0x0002e954                __smakebuf_r
 .text._malloc_r
                0x0002e9ec      0x574 c:/ti/ccs1220/ccs/tools/compiler/gcc-arm-none-eabi-9-2019-q4-major/bin/../lib/gcc/arm-none-eabi/9.2.1/../../../../arm-none-eabi/lib/thumb/v7e-m/nofp\libc.a(lib_a-mallocr.o)
                0x0002e9ec                _malloc_r
 .text.memmove  0x0002ef60       0xd8 c:/ti/ccs1220/ccs/tools/compiler/gcc-arm-none-eabi-9-2019-q4-major/bin/../lib/gcc/arm-none-eabi/9.2.1/../../../../arm-none-eabi/lib/thumb/v7e-m/nofp\libc.a(lib_a-memmove.o)
                0x0002ef60                memmove
 .text.__malloc_lock
                0x0002f038        0xc c:/ti/ccs1220/ccs/tools/compiler/gcc-arm-none-eabi-9-2019-q4-major/bin/../lib/gcc/arm-none-eabi/9.2.1/../../../../arm-none-eabi/lib/thumb/v7e-m/nofp\libc.a(lib_a-mlock.o)
                0x0002f038                __malloc_lock
 .text.__malloc_unlock
                0x0002f044        0xc c:/ti/ccs1220/ccs/tools/compiler/gcc-arm-none-eabi-9-2019-q4-major/bin/../lib/gcc/arm-none-eabi/9.2.1/../../../../arm-none-eabi/lib/thumb/v7e-m/nofp\libc.a(lib_a-mlock.o)
                0x0002f044                __malloc_unlock
 .text._Balloc  0x0002f050       0x4c c:/ti/ccs1220/ccs/tools/compiler/gcc-arm-none-eabi-9-2019-q4-major/bin/../lib/gcc/arm-none-eabi/9.2.1/../../../../arm-none-eabi/lib/thumb/v7e-m/nofp\libc.a(lib_a-mprec.o)
                0x0002f050                _Balloc
 .text._Bfree   0x0002f09c       0x14 c:/ti/ccs1220/ccs/tools/compiler/gcc-arm-none-eabi-9-2019-q4-major/bin/../lib/gcc/arm-none-eabi/9.2.1/../../../../arm-none-eabi/lib/thumb/v7e-m/nofp\libc.a(lib_a-mprec.o)
                0x0002f09c                _Bfree
 .text.__multadd
                0x0002f0b0       0x80 c:/ti/ccs1220/ccs/tools/compiler/gcc-arm-none-eabi-9-2019-q4-major/bin/../lib/gcc/arm-none-eabi/9.2.1/../../../../arm-none-eabi/lib/thumb/v7e-m/nofp\libc.a(lib_a-mprec.o)
                0x0002f0b0                __multadd
 .text.__s2b    0x0002f130       0xa0 c:/ti/ccs1220/ccs/tools/compiler/gcc-arm-none-eabi-9-2019-q4-major/bin/../lib/gcc/arm-none-eabi/9.2.1/../../../../arm-none-eabi/lib/thumb/v7e-m/nofp\libc.a(lib_a-mprec.o)
                0x0002f130                __s2b
 .text.__hi0bits
                0x0002f1d0       0x40 c:/ti/ccs1220/ccs/tools/compiler/gcc-arm-none-eabi-9-2019-q4-major/bin/../lib/gcc/arm-none-eabi/9.2.1/../../../../arm-none-eabi/lib/thumb/v7e-m/nofp\libc.a(lib_a-mprec.o)
                0x0002f1d0                __hi0bits
 .text.__lo0bits
                0x0002f210       0x60 c:/ti/ccs1220/ccs/tools/compiler/gcc-arm-none-eabi-9-2019-q4-major/bin/../lib/gcc/arm-none-eabi/9.2.1/../../../../arm-none-eabi/lib/thumb/v7e-m/nofp\libc.a(lib_a-mprec.o)
                0x0002f210                __lo0bits
 .text.__i2b    0x0002f270       0x14 c:/ti/ccs1220/ccs/tools/compiler/gcc-arm-none-eabi-9-2019-q4-major/bin/../lib/gcc/arm-none-eabi/9.2.1/../../../../arm-none-eabi/lib/thumb/v7e-m/nofp\libc.a(lib_a-mprec.o)
                0x0002f270                __i2b
 .text.__multiply
                0x0002f284      0x144 c:/ti/ccs1220/ccs/tools/compiler/gcc-arm-none-eabi-9-2019-q4-major/bin/../lib/gcc/arm-none-eabi/9.2.1/../../../../arm-none-eabi/lib/thumb/v7e-m/nofp\libc.a(lib_a-mprec.o)
                0x0002f284                __multiply
 .text.__pow5mult
                0x0002f3c8       0xa0 c:/ti/ccs1220/ccs/tools/compiler/gcc-arm-none-eabi-9-2019-q4-major/bin/../lib/gcc/arm-none-eabi/9.2.1/../../../../arm-none-eabi/lib/thumb/v7e-m/nofp\libc.a(lib_a-mprec.o)
                0x0002f3c8                __pow5mult
 .text.__lshift
                0x0002f468       0xd4 c:/ti/ccs1220/ccs/tools/compiler/gcc-arm-none-eabi-9-2019-q4-major/bin/../lib/gcc/arm-none-eabi/9.2.1/../../../../arm-none-eabi/lib/thumb/v7e-m/nofp\libc.a(lib_a-mprec.o)
                0x0002f468                __lshift
 .text.__mcmp   0x0002f53c       0x3c c:/ti/ccs1220/ccs/tools/compiler/gcc-arm-none-eabi-9-2019-q4-major/bin/../lib/gcc/arm-none-eabi/9.2.1/../../../../arm-none-eabi/lib/thumb/v7e-m/nofp\libc.a(lib_a-mprec.o)
                0x0002f53c                __mcmp
 .text.__mdiff  0x0002f578      0x138 c:/ti/ccs1220/ccs/tools/compiler/gcc-arm-none-eabi-9-2019-q4-major/bin/../lib/gcc/arm-none-eabi/9.2.1/../../../../arm-none-eabi/lib/thumb/v7e-m/nofp\libc.a(lib_a-mprec.o)
                0x0002f578                __mdiff
 .text.__ulp    0x0002f6b0       0x44 c:/ti/ccs1220/ccs/tools/compiler/gcc-arm-none-eabi-9-2019-q4-major/bin/../lib/gcc/arm-none-eabi/9.2.1/../../../../arm-none-eabi/lib/thumb/v7e-m/nofp\libc.a(lib_a-mprec.o)
                0x0002f6b0                __ulp
 .text.__b2d    0x0002f6f4       0xcc c:/ti/ccs1220/ccs/tools/compiler/gcc-arm-none-eabi-9-2019-q4-major/bin/../lib/gcc/arm-none-eabi/9.2.1/../../../../arm-none-eabi/lib/thumb/v7e-m/nofp\libc.a(lib_a-mprec.o)
                0x0002f6f4                __b2d
 .text.__d2b    0x0002f7c0       0xa8 c:/ti/ccs1220/ccs/tools/compiler/gcc-arm-none-eabi-9-2019-q4-major/bin/../lib/gcc/arm-none-eabi/9.2.1/../../../../arm-none-eabi/lib/thumb/v7e-m/nofp\libc.a(lib_a-mprec.o)
                0x0002f7c0                __d2b
 .text.__ratio  0x0002f868       0x60 c:/ti/ccs1220/ccs/tools/compiler/gcc-arm-none-eabi-9-2019-q4-major/bin/../lib/gcc/arm-none-eabi/9.2.1/../../../../arm-none-eabi/lib/thumb/v7e-m/nofp\libc.a(lib_a-mprec.o)
                0x0002f868                __ratio
 .text._mprec_log10
                0x0002f8c8       0x38 c:/ti/ccs1220/ccs/tools/compiler/gcc-arm-none-eabi-9-2019-q4-major/bin/../lib/gcc/arm-none-eabi/9.2.1/../../../../arm-none-eabi/lib/thumb/v7e-m/nofp\libc.a(lib_a-mprec.o)
                0x0002f8c8                _mprec_log10
 .text.__copybits
                0x0002f900       0x48 c:/ti/ccs1220/ccs/tools/compiler/gcc-arm-none-eabi-9-2019-q4-major/bin/../lib/gcc/arm-none-eabi/9.2.1/../../../../arm-none-eabi/lib/thumb/v7e-m/nofp\libc.a(lib_a-mprec.o)
                0x0002f900                __copybits
 .text.__any_on
                0x0002f948       0x60 c:/ti/ccs1220/ccs/tools/compiler/gcc-arm-none-eabi-9-2019-q4-major/bin/../lib/gcc/arm-none-eabi/9.2.1/../../../../arm-none-eabi/lib/thumb/v7e-m/nofp\libc.a(lib_a-mprec.o)
                0x0002f948                __any_on
 .text._realloc_r
                0x0002f9a8      0x3e0 c:/ti/ccs1220/ccs/tools/compiler/gcc-arm-none-eabi-9-2019-q4-major/bin/../lib/gcc/arm-none-eabi/9.2.1/../../../../arm-none-eabi/lib/thumb/v7e-m/nofp\libc.a(lib_a-reallocr.o)
                0x0002f9a8                _realloc_r
 .text.frexp    0x0002fd88       0x70 c:/ti/ccs1220/ccs/tools/compiler/gcc-arm-none-eabi-9-2019-q4-major/bin/../lib/gcc/arm-none-eabi/9.2.1/../../../../arm-none-eabi/lib/thumb/v7e-m/nofp\libc.a(lib_a-s_frexp.o)
                0x0002fd88                frexp
 .text._sbrk_r  0x0002fdf8       0x24 c:/ti/ccs1220/ccs/tools/compiler/gcc-arm-none-eabi-9-2019-q4-major/bin/../lib/gcc/arm-none-eabi/9.2.1/../../../../arm-none-eabi/lib/thumb/v7e-m/nofp\libc.a(lib_a-sbrkr.o)
                0x0002fdf8                _sbrk_r
 .text.__sread  0x0002fe1c       0x24 c:/ti/ccs1220/ccs/tools/compiler/gcc-arm-none-eabi-9-2019-q4-major/bin/../lib/gcc/arm-none-eabi/9.2.1/../../../../arm-none-eabi/lib/thumb/v7e-m/nofp\libc.a(lib_a-stdio.o)
                0x0002fe1c                __sread
 .text.__seofread
                0x0002fe40        0x4 c:/ti/ccs1220/ccs/tools/compiler/gcc-arm-none-eabi-9-2019-q4-major/bin/../lib/gcc/arm-none-eabi/9.2.1/../../../../arm-none-eabi/lib/thumb/v7e-m/nofp\libc.a(lib_a-stdio.o)
                0x0002fe40                __seofread
 .text.__swrite
                0x0002fe44       0x40 c:/ti/ccs1220/ccs/tools/compiler/gcc-arm-none-eabi-9-2019-q4-major/bin/../lib/gcc/arm-none-eabi/9.2.1/../../../../arm-none-eabi/lib/thumb/v7e-m/nofp\libc.a(lib_a-stdio.o)
                0x0002fe44                __swrite
 .text.__sseek  0x0002fe84       0x20 c:/ti/ccs1220/ccs/tools/compiler/gcc-arm-none-eabi-9-2019-q4-major/bin/../lib/gcc/arm-none-eabi/9.2.1/../../../../arm-none-eabi/lib/thumb/v7e-m/nofp\libc.a(lib_a-stdio.o)
                0x0002fe84                __sseek
 .text.__sclose
                0x0002fea4        0x8 c:/ti/ccs1220/ccs/tools/compiler/gcc-arm-none-eabi-9-2019-q4-major/bin/../lib/gcc/arm-none-eabi/9.2.1/../../../../arm-none-eabi/lib/thumb/v7e-m/nofp\libc.a(lib_a-stdio.o)
                0x0002fea4                __sclose
 .text.strncpy  0x0002feac       0x68 c:/ti/ccs1220/ccs/tools/compiler/gcc-arm-none-eabi-9-2019-q4-major/bin/../lib/gcc/arm-none-eabi/9.2.1/../../../../arm-none-eabi/lib/thumb/v7e-m/nofp\libc.a(lib_a-strncpy.o)
                0x0002feac                strncpy
 .text.__sprint_r.part.0
                0x0002ff14       0x78 c:/ti/ccs1220/ccs/tools/compiler/gcc-arm-none-eabi-9-2019-q4-major/bin/../lib/gcc/arm-none-eabi/9.2.1/../../../../arm-none-eabi/lib/thumb/v7e-m/nofp\libc.a(lib_a-vfiprintf.o)
 .text.__sprint_r
                0x0002ff8c       0x14 c:/ti/ccs1220/ccs/tools/compiler/gcc-arm-none-eabi-9-2019-q4-major/bin/../lib/gcc/arm-none-eabi/9.2.1/../../../../arm-none-eabi/lib/thumb/v7e-m/nofp\libc.a(lib_a-vfiprintf.o)
                0x0002ff8c                __sprint_r
 .text._vfiprintf_r
                0x0002ffa0      0xd38 c:/ti/ccs1220/ccs/tools/compiler/gcc-arm-none-eabi-9-2019-q4-major/bin/../lib/gcc/arm-none-eabi/9.2.1/../../../../arm-none-eabi/lib/thumb/v7e-m/nofp\libc.a(lib_a-vfiprintf.o)
                0x0002ffa0                _vfiprintf_r
 .text.vfiprintf
                0x00030cd8       0x18 c:/ti/ccs1220/ccs/tools/compiler/gcc-arm-none-eabi-9-2019-q4-major/bin/../lib/gcc/arm-none-eabi/9.2.1/../../../../arm-none-eabi/lib/thumb/v7e-m/nofp\libc.a(lib_a-vfiprintf.o)
                0x00030cd8                vfiprintf
 .text.__sbprintf
                0x00030cf0       0x84 c:/ti/ccs1220/ccs/tools/compiler/gcc-arm-none-eabi-9-2019-q4-major/bin/../lib/gcc/arm-none-eabi/9.2.1/../../../../arm-none-eabi/lib/thumb/v7e-m/nofp\libc.a(lib_a-vfiprintf.o)
 .text._write_r
                0x00030d74       0x2c c:/ti/ccs1220/ccs/tools/compiler/gcc-arm-none-eabi-9-2019-q4-major/bin/../lib/gcc/arm-none-eabi/9.2.1/../../../../arm-none-eabi/lib/thumb/v7e-m/nofp\libc.a(lib_a-writer.o)
                0x00030d74                _write_r
 .text.__register_exitproc
                0x00030da0       0x8c c:/ti/ccs1220/ccs/tools/compiler/gcc-arm-none-eabi-9-2019-q4-major/bin/../lib/gcc/arm-none-eabi/9.2.1/../../../../arm-none-eabi/lib/thumb/v7e-m/nofp\libc.a(lib_a-__atexit.o)
                0x00030da0                __register_exitproc
 .text._calloc_r
                0x00030e2c       0x60 c:/ti/ccs1220/ccs/tools/compiler/gcc-arm-none-eabi-9-2019-q4-major/bin/../lib/gcc/arm-none-eabi/9.2.1/../../../../arm-none-eabi/lib/thumb/v7e-m/nofp\libc.a(lib_a-callocr.o)
                0x00030e2c                _calloc_r
 .text._close_r
                0x00030e8c       0x24 c:/ti/ccs1220/ccs/tools/compiler/gcc-arm-none-eabi-9-2019-q4-major/bin/../lib/gcc/arm-none-eabi/9.2.1/../../../../arm-none-eabi/lib/thumb/v7e-m/nofp\libc.a(lib_a-closer.o)
                0x00030e8c                _close_r
 .text._fclose_r
                0x00030eb0       0xcc c:/ti/ccs1220/ccs/tools/compiler/gcc-arm-none-eabi-9-2019-q4-major/bin/../lib/gcc/arm-none-eabi/9.2.1/../../../../arm-none-eabi/lib/thumb/v7e-m/nofp\libc.a(lib_a-fclose.o)
                0x00030eb0                _fclose_r
 .text.fclose   0x00030f7c       0x10 c:/ti/ccs1220/ccs/tools/compiler/gcc-arm-none-eabi-9-2019-q4-major/bin/../lib/gcc/arm-none-eabi/9.2.1/../../../../arm-none-eabi/lib/thumb/v7e-m/nofp\libc.a(lib_a-fclose.o)
                0x00030f7c                fclose
 .text.__fputwc
                0x00030f8c       0xa8 c:/ti/ccs1220/ccs/tools/compiler/gcc-arm-none-eabi-9-2019-q4-major/bin/../lib/gcc/arm-none-eabi/9.2.1/../../../../arm-none-eabi/lib/thumb/v7e-m/nofp\libc.a(lib_a-fputwc.o)
                0x00030f8c                __fputwc
 .text._fputwc_r
                0x00031034       0x68 c:/ti/ccs1220/ccs/tools/compiler/gcc-arm-none-eabi-9-2019-q4-major/bin/../lib/gcc/arm-none-eabi/9.2.1/../../../../arm-none-eabi/lib/thumb/v7e-m/nofp\libc.a(lib_a-fputwc.o)
                0x00031034                _fputwc_r
 .text.fputwc   0x0003109c       0x38 c:/ti/ccs1220/ccs/tools/compiler/gcc-arm-none-eabi-9-2019-q4-major/bin/../lib/gcc/arm-none-eabi/9.2.1/../../../../arm-none-eabi/lib/thumb/v7e-m/nofp\libc.a(lib_a-fputwc.o)
                0x0003109c                fputwc
 .text._fstat_r
                0x000310d4       0x2c c:/ti/ccs1220/ccs/tools/compiler/gcc-arm-none-eabi-9-2019-q4-major/bin/../lib/gcc/arm-none-eabi/9.2.1/../../../../arm-none-eabi/lib/thumb/v7e-m/nofp\libc.a(lib_a-fstatr.o)
                0x000310d4                _fstat_r
 .text._isatty_r
                0x00031100       0x24 c:/ti/ccs1220/ccs/tools/compiler/gcc-arm-none-eabi-9-2019-q4-major/bin/../lib/gcc/arm-none-eabi/9.2.1/../../../../arm-none-eabi/lib/thumb/v7e-m/nofp\libc.a(lib_a-isattyr.o)
                0x00031100                _isatty_r
 .text._setlocale_r
                0x00031124       0x40 c:/ti/ccs1220/ccs/tools/compiler/gcc-arm-none-eabi-9-2019-q4-major/bin/../lib/gcc/arm-none-eabi/9.2.1/../../../../arm-none-eabi/lib/thumb/v7e-m/nofp\libc.a(lib_a-locale.o)
                0x00031124                _setlocale_r
 .text.__locale_mb_cur_max
                0x00031164        0xc c:/ti/ccs1220/ccs/tools/compiler/gcc-arm-none-eabi-9-2019-q4-major/bin/../lib/gcc/arm-none-eabi/9.2.1/../../../../arm-none-eabi/lib/thumb/v7e-m/nofp\libc.a(lib_a-locale.o)
                0x00031164                __locale_mb_cur_max
 .text.setlocale
                0x00031170       0x10 c:/ti/ccs1220/ccs/tools/compiler/gcc-arm-none-eabi-9-2019-q4-major/bin/../lib/gcc/arm-none-eabi/9.2.1/../../../../arm-none-eabi/lib/thumb/v7e-m/nofp\libc.a(lib_a-locale.o)
                0x00031170                setlocale
 .text._lseek_r
                0x00031180       0x2c c:/ti/ccs1220/ccs/tools/compiler/gcc-arm-none-eabi-9-2019-q4-major/bin/../lib/gcc/arm-none-eabi/9.2.1/../../../../arm-none-eabi/lib/thumb/v7e-m/nofp\libc.a(lib_a-lseekr.o)
                0x00031180                _lseek_r
 .text._mbtowc_r
                0x000311ac       0x14 c:/ti/ccs1220/ccs/tools/compiler/gcc-arm-none-eabi-9-2019-q4-major/bin/../lib/gcc/arm-none-eabi/9.2.1/../../../../arm-none-eabi/lib/thumb/v7e-m/nofp\libc.a(lib_a-mbtowc_r.o)
                0x000311ac                _mbtowc_r
 .text.__ascii_mbtowc
                0x000311c0       0x2c c:/ti/ccs1220/ccs/tools/compiler/gcc-arm-none-eabi-9-2019-q4-major/bin/../lib/gcc/arm-none-eabi/9.2.1/../../../../arm-none-eabi/lib/thumb/v7e-m/nofp\libc.a(lib_a-mbtowc_r.o)
                0x000311c0                __ascii_mbtowc
 .text._read_r  0x000311ec       0x2c c:/ti/ccs1220/ccs/tools/compiler/gcc-arm-none-eabi-9-2019-q4-major/bin/../lib/gcc/arm-none-eabi/9.2.1/../../../../arm-none-eabi/lib/thumb/v7e-m/nofp\libc.a(lib_a-readr.o)
                0x000311ec                _read_r
 .text.cleanup_glue
                0x00031218       0x1c c:/ti/ccs1220/ccs/tools/compiler/gcc-arm-none-eabi-9-2019-q4-major/bin/../lib/gcc/arm-none-eabi/9.2.1/../../../../arm-none-eabi/lib/thumb/v7e-m/nofp\libc.a(lib_a-reent.o)
                0x00031218                cleanup_glue
 .text._reclaim_reent
                0x00031234       0x84 c:/ti/ccs1220/ccs/tools/compiler/gcc-arm-none-eabi-9-2019-q4-major/bin/../lib/gcc/arm-none-eabi/9.2.1/../../../../arm-none-eabi/lib/thumb/v7e-m/nofp\libc.a(lib_a-reent.o)
                0x00031234                _reclaim_reent
 .text.__swbuf_r
                0x000312b8       0xb0 c:/ti/ccs1220/ccs/tools/compiler/gcc-arm-none-eabi-9-2019-q4-major/bin/../lib/gcc/arm-none-eabi/9.2.1/../../../../arm-none-eabi/lib/thumb/v7e-m/nofp\libc.a(lib_a-wbuf.o)
                0x000312b8                __swbuf_r
 .text.__swbuf  0x00031368       0x10 c:/ti/ccs1220/ccs/tools/compiler/gcc-arm-none-eabi-9-2019-q4-major/bin/../lib/gcc/arm-none-eabi/9.2.1/../../../../arm-none-eabi/lib/thumb/v7e-m/nofp\libc.a(lib_a-wbuf.o)
                0x00031368                __swbuf
 .text._wcrtomb_r
                0x00031378       0x3c c:/ti/ccs1220/ccs/tools/compiler/gcc-arm-none-eabi-9-2019-q4-major/bin/../lib/gcc/arm-none-eabi/9.2.1/../../../../arm-none-eabi/lib/thumb/v7e-m/nofp\libc.a(lib_a-wcrtomb.o)
                0x00031378                _wcrtomb_r
 .text.wcrtomb  0x000313b4       0x4c c:/ti/ccs1220/ccs/tools/compiler/gcc-arm-none-eabi-9-2019-q4-major/bin/../lib/gcc/arm-none-eabi/9.2.1/../../../../arm-none-eabi/lib/thumb/v7e-m/nofp\libc.a(lib_a-wcrtomb.o)
                0x000313b4                wcrtomb
 .text._wctomb_r
                0x00031400       0x14 c:/ti/ccs1220/ccs/tools/compiler/gcc-arm-none-eabi-9-2019-q4-major/bin/../lib/gcc/arm-none-eabi/9.2.1/../../../../arm-none-eabi/lib/thumb/v7e-m/nofp\libc.a(lib_a-wctomb_r.o)
                0x00031400                _wctomb_r
 .text.__ascii_wctomb
                0x00031414       0x1c c:/ti/ccs1220/ccs/tools/compiler/gcc-arm-none-eabi-9-2019-q4-major/bin/../lib/gcc/arm-none-eabi/9.2.1/../../../../arm-none-eabi/lib/thumb/v7e-m/nofp\libc.a(lib_a-wctomb_r.o)
                0x00031414                __ascii_wctomb
 .text._close   0x00031430       0x10 c:/ti/ccs1220/ccs/tools/compiler/gcc-arm-none-eabi-9-2019-q4-major/bin/../lib/gcc/arm-none-eabi/9.2.1/../../../../arm-none-eabi/lib/thumb/v7e-m/nofp\libnosys.a(close.o)
                0x00031430                _close
 .text._fstat   0x00031440       0x10 c:/ti/ccs1220/ccs/tools/compiler/gcc-arm-none-eabi-9-2019-q4-major/bin/../lib/gcc/arm-none-eabi/9.2.1/../../../../arm-none-eabi/lib/thumb/v7e-m/nofp\libnosys.a(fstat.o)
                0x00031440                _fstat
 .text._isatty  0x00031450       0x10 c:/ti/ccs1220/ccs/tools/compiler/gcc-arm-none-eabi-9-2019-q4-major/bin/../lib/gcc/arm-none-eabi/9.2.1/../../../../arm-none-eabi/lib/thumb/v7e-m/nofp\libnosys.a(isatty.o)
                0x00031450                _isatty
 .text._lseek   0x00031460       0x10 c:/ti/ccs1220/ccs/tools/compiler/gcc-arm-none-eabi-9-2019-q4-major/bin/../lib/gcc/arm-none-eabi/9.2.1/../../../../arm-none-eabi/lib/thumb/v7e-m/nofp\libnosys.a(lseek.o)
                0x00031460                _lseek
 .text._read    0x00031470       0x10 c:/ti/ccs1220/ccs/tools/compiler/gcc-arm-none-eabi-9-2019-q4-major/bin/../lib/gcc/arm-none-eabi/9.2.1/../../../../arm-none-eabi/lib/thumb/v7e-m/nofp\libnosys.a(read.o)
                0x00031470                _read
 .text._sbrk    0x00031480       0x1c c:/ti/ccs1220/ccs/tools/compiler/gcc-arm-none-eabi-9-2019-q4-major/bin/../lib/gcc/arm-none-eabi/9.2.1/../../../../arm-none-eabi/lib/thumb/v7e-m/nofp\libnosys.a(sbrk.o)
                0x00031480                _sbrk
 .text._write   0x0003149c       0x10 c:/ti/ccs1220/ccs/tools/compiler/gcc-arm-none-eabi-9-2019-q4-major/bin/../lib/gcc/arm-none-eabi/9.2.1/../../../../arm-none-eabi/lib/thumb/v7e-m/nofp\libnosys.a(write.o)
                0x0003149c                _write
 .text._exit    0x000314ac        0x4 c:/ti/ccs1220/ccs/tools/compiler/gcc-arm-none-eabi-9-2019-q4-major/bin/../lib/gcc/arm-none-eabi/9.2.1/../../../../arm-none-eabi/lib/thumb/v7e-m/nofp\libnosys.a(_exit.o)
                0x000314ac                _exit
 *(.rodata)
 .rodata        0x000314b0        0xe ./Source/BSP/startup_tm4c_gnu.o
 *fill*         0x000314be        0x2 
 .rodata        0x000314c0       0x40 ./Source/FreeRtos/tasks.o
 .rodata        0x00031500        0xd ./Source/FreeRtos/timers.o
 *(.rodata*)
 *fill*         0x0003150d        0x3 
 .rodata.MSG_Obj
                0x00031510       0x14 ./Source/Driver/CAN/CAN_Driver.o
                0x00031510                MSG_Obj
 .rodata.PORT   0x00031524       0x18 ./Source/Driver/GPIO/GPIOdriver.o
                0x00031524                PORT
 .rodata.pcInterruptPriorityRegisters
                0x0003153c        0x4 ./Source/FreeRtos/portable/GCC/ARM_CM4F/port.o
 .rodata.heapSTRUCT_SIZE
                0x00031540        0x2 ./Source/FreeRtos/portable/MemMang/heap_2.o
 .rodata.font_width
                0x00031542        0x1 ./Source/Middleware/OLED_SSD1306/SSD1306.o
                0x00031542                font_width
 *fill*         0x00031543        0x1 
 .rodata.font_5x8
                0x00031544      0x2a0 ./Source/Middleware/OLED_SSD1306/SSD1306.o
                0x00031544                font_5x8
 .rodata.shiva_logo
                0x000317e4      0x400 ./Source/Middleware/OLED_SSD1306/SSD1306.o
                0x000317e4                shiva_logo
 .rodata._global_impure_ptr
                0x00031be4        0x4 c:/ti/ccs1220/ccs/tools/compiler/gcc-arm-none-eabi-9-2019-q4-major/bin/../lib/gcc/arm-none-eabi/9.2.1/../../../../arm-none-eabi/lib/thumb/v7e-m/nofp\libc.a(lib_a-impure.o)
                0x00031be4                _global_impure_ptr
 .rodata._puts_r.str1.4
                0x00031be8        0x2 c:/ti/ccs1220/ccs/tools/compiler/gcc-arm-none-eabi-9-2019-q4-major/bin/../lib/gcc/arm-none-eabi/9.2.1/../../../../arm-none-eabi/lib/thumb/v7e-m/nofp\libc.a(lib_a-puts.o)
 *fill*         0x00031bea        0x2 
 .rodata._vfprintf_r.str1.4
                0x00031bec       0x42 c:/ti/ccs1220/ccs/tools/compiler/gcc-arm-none-eabi-9-2019-q4-major/bin/../lib/gcc/arm-none-eabi/9.2.1/../../../../arm-none-eabi/lib/thumb/v7e-m/nofp\libc.a(lib_a-vfprintf.o)
 *fill*         0x00031c2e        0x2 
 .rodata.blanks.7360
                0x00031c30       0x10 c:/ti/ccs1220/ccs/tools/compiler/gcc-arm-none-eabi-9-2019-q4-major/bin/../lib/gcc/arm-none-eabi/9.2.1/../../../../arm-none-eabi/lib/thumb/v7e-m/nofp\libc.a(lib_a-vfprintf.o)
 .rodata.zeroes.7361
                0x00031c40       0x10 c:/ti/ccs1220/ccs/tools/compiler/gcc-arm-none-eabi-9-2019-q4-major/bin/../lib/gcc/arm-none-eabi/9.2.1/../../../../arm-none-eabi/lib/thumb/v7e-m/nofp\libc.a(lib_a-vfprintf.o)
 .rodata._dtoa_r.str1.4
                0x00031c50        0xd c:/ti/ccs1220/ccs/tools/compiler/gcc-arm-none-eabi-9-2019-q4-major/bin/../lib/gcc/arm-none-eabi/9.2.1/../../../../arm-none-eabi/lib/thumb/v7e-m/nofp\libc.a(lib_a-dtoa.o)
                                 0x12 (size before relaxing)
 *fill*         0x00031c5d        0x3 
 .rodata.__mprec_bigtens
                0x00031c60       0x28 c:/ti/ccs1220/ccs/tools/compiler/gcc-arm-none-eabi-9-2019-q4-major/bin/../lib/gcc/arm-none-eabi/9.2.1/../../../../arm-none-eabi/lib/thumb/v7e-m/nofp\libc.a(lib_a-mprec.o)
                0x00031c60                __mprec_bigtens
 .rodata.__mprec_tens
                0x00031c88       0xc8 c:/ti/ccs1220/ccs/tools/compiler/gcc-arm-none-eabi-9-2019-q4-major/bin/../lib/gcc/arm-none-eabi/9.2.1/../../../../arm-none-eabi/lib/thumb/v7e-m/nofp\libc.a(lib_a-mprec.o)
                0x00031c88                __mprec_tens
 .rodata.__mprec_tinytens
                0x00031d50       0x28 c:/ti/ccs1220/ccs/tools/compiler/gcc-arm-none-eabi-9-2019-q4-major/bin/../lib/gcc/arm-none-eabi/9.2.1/../../../../arm-none-eabi/lib/thumb/v7e-m/nofp\libc.a(lib_a-mprec.o)
                0x00031d50                __mprec_tinytens
 .rodata.p05.6115
                0x00031d78        0xc c:/ti/ccs1220/ccs/tools/compiler/gcc-arm-none-eabi-9-2019-q4-major/bin/../lib/gcc/arm-none-eabi/9.2.1/../../../../arm-none-eabi/lib/thumb/v7e-m/nofp\libc.a(lib_a-mprec.o)
 .rodata._vfiprintf_r.str1.4
                0x00031d84       0x2f c:/ti/ccs1220/ccs/tools/compiler/gcc-arm-none-eabi-9-2019-q4-major/bin/../lib/gcc/arm-none-eabi/9.2.1/../../../../arm-none-eabi/lib/thumb/v7e-m/nofp\libc.a(lib_a-vfiprintf.o)
 .rodata.blanks.7338
                0x00031d84       0x10 c:/ti/ccs1220/ccs/tools/compiler/gcc-arm-none-eabi-9-2019-q4-major/bin/../lib/gcc/arm-none-eabi/9.2.1/../../../../arm-none-eabi/lib/thumb/v7e-m/nofp\libc.a(lib_a-vfiprintf.o)
 .rodata.zeroes.7339
                0x00031d94       0x10 c:/ti/ccs1220/ccs/tools/compiler/gcc-arm-none-eabi-9-2019-q4-major/bin/../lib/gcc/arm-none-eabi/9.2.1/../../../../arm-none-eabi/lib/thumb/v7e-m/nofp\libc.a(lib_a-vfiprintf.o)
 .rodata._setlocale_r.str1.4
                0x00031da4        0xa c:/ti/ccs1220/ccs/tools/compiler/gcc-arm-none-eabi-9-2019-q4-major/bin/../lib/gcc/arm-none-eabi/9.2.1/../../../../arm-none-eabi/lib/thumb/v7e-m/nofp\libc.a(lib_a-locale.o)
                                  0xd (size before relaxing)
 *fill*         0x00031dae        0x2 
 .rodata.str1.4
                0x00031db0        0x2 c:/ti/ccs1220/ccs/tools/compiler/gcc-arm-none-eabi-9-2019-q4-major/bin/../lib/gcc/arm-none-eabi/9.2.1/../../../../arm-none-eabi/lib/thumb/v7e-m/nofp\libc.a(lib_a-locale.o)
 *fill*         0x00031db2        0x2 
 .rodata._ctype_
                0x00031db4      0x101 c:/ti/ccs1220/ccs/tools/compiler/gcc-arm-none-eabi-9-2019-q4-major/bin/../lib/gcc/arm-none-eabi/9.2.1/../../../../arm-none-eabi/lib/thumb/v7e-m/nofp\libc.a(lib_a-ctype_.o)
                0x00031db4                _ctype_
 *(.init)
 *fill*         0x00031eb5        0x3 
 .init          0x00031eb8        0x4 c:/ti/ccs1220/ccs/tools/compiler/gcc-arm-none-eabi-9-2019-q4-major/bin/../lib/gcc/arm-none-eabi/9.2.1/thumb/v7e-m/nofp/crti.o
                0x00031eb8                _init
 .init          0x00031ebc        0x8 c:/ti/ccs1220/ccs/tools/compiler/gcc-arm-none-eabi-9-2019-q4-major/bin/../lib/gcc/arm-none-eabi/9.2.1/thumb/v7e-m/nofp/crtn.o
 *(.fini)
 .fini          0x00031ec4        0x4 c:/ti/ccs1220/ccs/tools/compiler/gcc-arm-none-eabi-9-2019-q4-major/bin/../lib/gcc/arm-none-eabi/9.2.1/thumb/v7e-m/nofp/crti.o
                0x00031ec4                _fini
 .fini          0x00031ec8        0x8 c:/ti/ccs1220/ccs/tools/compiler/gcc-arm-none-eabi-9-2019-q4-major/bin/../lib/gcc/arm-none-eabi/9.2.1/thumb/v7e-m/nofp/crtn.o
                0x00031ed0                . = ALIGN (0x4)

.glue_7         0x00031ed0        0x0
 .glue_7        0x00031ed0        0x0 linker stubs

.glue_7t        0x00031ed0        0x0
 .glue_7t       0x00031ed0        0x0 linker stubs

.vfp11_veneer   0x00031ed0        0x0
 .vfp11_veneer  0x00031ed0        0x0 linker stubs

.v4_bx          0x00031ed0        0x0
 .v4_bx         0x00031ed0        0x0 linker stubs

.iplt           0x00031ed0        0x0
 .iplt          0x00031ed0        0x0 c:/ti/ccs1220/ccs/tools/compiler/gcc-arm-none-eabi-9-2019-q4-major/bin/../lib/gcc/arm-none-eabi/9.2.1/thumb/v7e-m/nofp/crtbegin.o

.rel.dyn        0x00031ed0        0x0
 .rel.iplt      0x00031ed0        0x0 c:/ti/ccs1220/ccs/tools/compiler/gcc-arm-none-eabi-9-2019-q4-major/bin/../lib/gcc/arm-none-eabi/9.2.1/thumb/v7e-m/nofp/crtbegin.o

.preinit_array  0x00031ed0        0x0
                0x00031ed0                PROVIDE (__preinit_array_start = .)
 *(.preinit_array*)
                0x00031ed0                PROVIDE (__preinit_array_end = .)

.init_array     0x00031ed0        0x8
                0x00031ed0                PROVIDE (__init_array_start = .)
 *(SORT_BY_NAME(.init_array.*))
 .init_array.00000
                0x00031ed0        0x4 c:/ti/ccs1220/ccs/tools/compiler/gcc-arm-none-eabi-9-2019-q4-major/bin/../lib/gcc/arm-none-eabi/9.2.1/../../../../arm-none-eabi/lib/thumb/v7e-m/nofp\libc.a(lib_a-__call_atexit.o)
 *(.init_array*)
 .init_array    0x00031ed4        0x4 c:/ti/ccs1220/ccs/tools/compiler/gcc-arm-none-eabi-9-2019-q4-major/bin/../lib/gcc/arm-none-eabi/9.2.1/thumb/v7e-m/nofp/crtbegin.o
                0x00031ed8                PROVIDE (__init_array_end = .)

.fini_array     0x00031ed8        0x4
                0x00031ed8                PROVIDE (__fini_array_start = .)
 *(.fini_array*)
 .fini_array    0x00031ed8        0x4 c:/ti/ccs1220/ccs/tools/compiler/gcc-arm-none-eabi-9-2019-q4-major/bin/../lib/gcc/arm-none-eabi/9.2.1/thumb/v7e-m/nofp/crtbegin.o
 *(SORT_BY_NAME(.fini_array.*))
                0x00031edc                PROVIDE (__fini_array_end = .)
                0x00031edc                _etext = .

.data           0x20002000      0xa78 load address 0x00031edc
                0x00031edc                __data_load__ = LOADADDR (.data)
                0x20002000                __data_start__ = .
 *(.data)
 .data          0x20002000        0x0 c:/ti/ccs1220/ccs/tools/compiler/gcc-arm-none-eabi-9-2019-q4-major/bin/../lib/gcc/arm-none-eabi/9.2.1/thumb/v7e-m/nofp/crti.o
 .data          0x20002000        0x4 c:/ti/ccs1220/ccs/tools/compiler/gcc-arm-none-eabi-9-2019-q4-major/bin/../lib/gcc/arm-none-eabi/9.2.1/thumb/v7e-m/nofp/crtbegin.o
                0x20002000                __dso_handle
 .data          0x20002004        0x0 c:/ti/ccs1220/ccs/tools/compiler/gcc-arm-none-eabi-9-2019-q4-major/bin/../lib/gcc/arm-none-eabi/9.2.1/../../../../arm-none-eabi/lib/thumb/v7e-m/nofp/crt0.o
 .data          0x20002004        0x0 ./Source/App/Main/main.o
 .data          0x20002004        0x0 ./Source/BSP/bsp.o
 .data          0x20002004        0x0 ./Source/BSP/startup_tm4c_gnu.o
 .data          0x20002004        0x0 ./Source/Driver/ADC/ADC_Driver.o
 .data          0x20002004        0x0 ./Source/Driver/CAN/CAN_Driver.o
 .data          0x20002004        0x0 ./Source/Driver/GPIO/GPIOdriver.o
 .data          0x20002004        0x0 ./Source/Driver/I2C/I2C.o
 .data          0x20002004        0x0 ./Source/Driver/LCD/LCD.o
 .data          0x20002004        0x0 ./Source/Driver/SPI/SPI.o
 .data          0x20002004        0x0 ./Source/Driver/Timer/Timer.o
 .data          0x20002004        0x0 ./Source/Driver/Timer/timercnter.o
 .data          0x20002004        0x0 ./Source/Driver/UART/UART.o
 .data          0x20002004        0x0 ./Source/FreeRtos/croutine.o
 .data          0x20002004        0x0 ./Source/FreeRtos/event_groups.o
 .data          0x20002004        0x0 ./Source/FreeRtos/list.o
 .data          0x20002004        0x0 ./Source/FreeRtos/queue.o
 .data          0x20002004        0x0 ./Source/FreeRtos/stream_buffer.o
 .data          0x20002004        0x0 ./Source/FreeRtos/tasks.o
 .data          0x20002004        0x0 ./Source/FreeRtos/timers.o
 .data          0x20002004        0x0 ./Source/FreeRtos/portable/Common/mpu_wrappers.o
 .data          0x20002004        0x0 ./Source/FreeRtos/portable/GCC/ARM_CM4F/port.o
 .data          0x20002004        0x0 ./Source/FreeRtos/portable/MemMang/heap_2.o
 .data          0x20002004        0x0 ./Source/Middleware/MCP3208/MCP3208.o
 .data          0x20002004        0x0 ./Source/Middleware/OLED_SSD1306/SSD1306.o
 .data          0x20002004        0x0 ./Source/Middleware/RTC_DS3231/DS3231.o
 .data          0x20002004        0x0 c:/ti/ccs1220/ccs/tools/compiler/gcc-arm-none-eabi-9-2019-q4-major/bin/../lib/gcc/arm-none-eabi/9.2.1/../../../../arm-none-eabi/lib/thumb/v7e-m/nofp\libc.a(lib_a-exit.o)
 .data          0x20002004        0x0 c:/ti/ccs1220/ccs/tools/compiler/gcc-arm-none-eabi-9-2019-q4-major/bin/../lib/gcc/arm-none-eabi/9.2.1/../../../../arm-none-eabi/lib/thumb/v7e-m/nofp\libc.a(lib_a-impure.o)
 .data          0x20002004        0x0 c:/ti/ccs1220/ccs/tools/compiler/gcc-arm-none-eabi-9-2019-q4-major/bin/../lib/gcc/arm-none-eabi/9.2.1/../../../../arm-none-eabi/lib/thumb/v7e-m/nofp\libc.a(lib_a-init.o)
 .data          0x20002004        0x0 c:/ti/ccs1220/ccs/tools/compiler/gcc-arm-none-eabi-9-2019-q4-major/bin/../lib/gcc/arm-none-eabi/9.2.1/../../../../arm-none-eabi/lib/thumb/v7e-m/nofp\libc.a(lib_a-memcpy.o)
 .data          0x20002004        0x0 c:/ti/ccs1220/ccs/tools/compiler/gcc-arm-none-eabi-9-2019-q4-major/bin/../lib/gcc/arm-none-eabi/9.2.1/../../../../arm-none-eabi/lib/thumb/v7e-m/nofp\libc.a(lib_a-memset.o)
 .data          0x20002004        0x0 c:/ti/ccs1220/ccs/tools/compiler/gcc-arm-none-eabi-9-2019-q4-major/bin/../lib/gcc/arm-none-eabi/9.2.1/../../../../arm-none-eabi/lib/thumb/v7e-m/nofp\libc.a(lib_a-printf.o)
 .data          0x20002004        0x0 c:/ti/ccs1220/ccs/tools/compiler/gcc-arm-none-eabi-9-2019-q4-major/bin/../lib/gcc/arm-none-eabi/9.2.1/../../../../arm-none-eabi/lib/thumb/v7e-m/nofp\libc.a(lib_a-puts.o)
 .data          0x20002004        0x0 c:/ti/ccs1220/ccs/tools/compiler/gcc-arm-none-eabi-9-2019-q4-major/bin/../lib/gcc/arm-none-eabi/9.2.1/../../../../arm-none-eabi/lib/thumb/v7e-m/nofp\libc.a(lib_a-strlen.o)
 .data          0x20002004        0x0 c:/ti/ccs1220/ccs/tools/compiler/gcc-arm-none-eabi-9-2019-q4-major/bin/../lib/gcc/arm-none-eabi/9.2.1/../../../../arm-none-eabi/lib/thumb/v7e-m/nofp\libc.a(lib_a-vfprintf.o)
 .data          0x20002004        0x0 c:/ti/ccs1220/ccs/tools/compiler/gcc-arm-none-eabi-9-2019-q4-major/bin/../lib/gcc/arm-none-eabi/9.2.1/../../../../arm-none-eabi/lib/thumb/v7e-m/nofp\libc.a(lib_a-wsetup.o)
 .data          0x20002004        0x0 c:/ti/ccs1220/ccs/tools/compiler/gcc-arm-none-eabi-9-2019-q4-major/bin/../lib/gcc/arm-none-eabi/9.2.1/../../../../arm-none-eabi/lib/thumb/v7e-m/nofp\libc.a(lib_a-__call_atexit.o)
 .data          0x20002004        0x0 c:/ti/ccs1220/ccs/tools/compiler/gcc-arm-none-eabi-9-2019-q4-major/bin/../lib/gcc/arm-none-eabi/9.2.1/../../../../arm-none-eabi/lib/thumb/v7e-m/nofp\libc.a(lib_a-atexit.o)
 .data          0x20002004        0x0 c:/ti/ccs1220/ccs/tools/compiler/gcc-arm-none-eabi-9-2019-q4-major/bin/../lib/gcc/arm-none-eabi/9.2.1/../../../../arm-none-eabi/lib/thumb/v7e-m/nofp\libc.a(lib_a-dtoa.o)
 .data          0x20002004        0x0 c:/ti/ccs1220/ccs/tools/compiler/gcc-arm-none-eabi-9-2019-q4-major/bin/../lib/gcc/arm-none-eabi/9.2.1/../../../../arm-none-eabi/lib/thumb/v7e-m/nofp\libc.a(lib_a-fflush.o)
 .data          0x20002004        0x0 c:/ti/ccs1220/ccs/tools/compiler/gcc-arm-none-eabi-9-2019-q4-major/bin/../lib/gcc/arm-none-eabi/9.2.1/../../../../arm-none-eabi/lib/thumb/v7e-m/nofp\libc.a(lib_a-findfp.o)
 .data          0x20002004        0x0 c:/ti/ccs1220/ccs/tools/compiler/gcc-arm-none-eabi-9-2019-q4-major/bin/../lib/gcc/arm-none-eabi/9.2.1/../../../../arm-none-eabi/lib/thumb/v7e-m/nofp\libc.a(lib_a-fini.o)
 .data          0x20002004        0x0 c:/ti/ccs1220/ccs/tools/compiler/gcc-arm-none-eabi-9-2019-q4-major/bin/../lib/gcc/arm-none-eabi/9.2.1/../../../../arm-none-eabi/lib/thumb/v7e-m/nofp\libc.a(lib_a-freer.o)
 .data          0x20002004        0x0 c:/ti/ccs1220/ccs/tools/compiler/gcc-arm-none-eabi-9-2019-q4-major/bin/../lib/gcc/arm-none-eabi/9.2.1/../../../../arm-none-eabi/lib/thumb/v7e-m/nofp\libc.a(lib_a-fvwrite.o)
 .data          0x20002004        0x0 c:/ti/ccs1220/ccs/tools/compiler/gcc-arm-none-eabi-9-2019-q4-major/bin/../lib/gcc/arm-none-eabi/9.2.1/../../../../arm-none-eabi/lib/thumb/v7e-m/nofp\libc.a(lib_a-fwalk.o)
 .data          0x20002004        0x0 c:/ti/ccs1220/ccs/tools/compiler/gcc-arm-none-eabi-9-2019-q4-major/bin/../lib/gcc/arm-none-eabi/9.2.1/../../../../arm-none-eabi/lib/thumb/v7e-m/nofp\libc.a(lib_a-localeconv.o)
 .data          0x20002004        0x0 c:/ti/ccs1220/ccs/tools/compiler/gcc-arm-none-eabi-9-2019-q4-major/bin/../lib/gcc/arm-none-eabi/9.2.1/../../../../arm-none-eabi/lib/thumb/v7e-m/nofp\libc.a(lib_a-lock.o)
 .data          0x20002004        0x0 c:/ti/ccs1220/ccs/tools/compiler/gcc-arm-none-eabi-9-2019-q4-major/bin/../lib/gcc/arm-none-eabi/9.2.1/../../../../arm-none-eabi/lib/thumb/v7e-m/nofp\libc.a(lib_a-makebuf.o)
 .data          0x20002004        0x0 c:/ti/ccs1220/ccs/tools/compiler/gcc-arm-none-eabi-9-2019-q4-major/bin/../lib/gcc/arm-none-eabi/9.2.1/../../../../arm-none-eabi/lib/thumb/v7e-m/nofp\libc.a(lib_a-mallocr.o)
 .data          0x20002004        0x0 c:/ti/ccs1220/ccs/tools/compiler/gcc-arm-none-eabi-9-2019-q4-major/bin/../lib/gcc/arm-none-eabi/9.2.1/../../../../arm-none-eabi/lib/thumb/v7e-m/nofp\libc.a(lib_a-memchr.o)
 .data          0x20002004        0x0 c:/ti/ccs1220/ccs/tools/compiler/gcc-arm-none-eabi-9-2019-q4-major/bin/../lib/gcc/arm-none-eabi/9.2.1/../../../../arm-none-eabi/lib/thumb/v7e-m/nofp\libc.a(lib_a-memmove.o)
 .data          0x20002004        0x0 c:/ti/ccs1220/ccs/tools/compiler/gcc-arm-none-eabi-9-2019-q4-major/bin/../lib/gcc/arm-none-eabi/9.2.1/../../../../arm-none-eabi/lib/thumb/v7e-m/nofp\libc.a(lib_a-mlock.o)
 .data          0x20002004        0x0 c:/ti/ccs1220/ccs/tools/compiler/gcc-arm-none-eabi-9-2019-q4-major/bin/../lib/gcc/arm-none-eabi/9.2.1/../../../../arm-none-eabi/lib/thumb/v7e-m/nofp\libc.a(lib_a-mprec.o)
 .data          0x20002004        0x0 c:/ti/ccs1220/ccs/tools/compiler/gcc-arm-none-eabi-9-2019-q4-major/bin/../lib/gcc/arm-none-eabi/9.2.1/../../../../arm-none-eabi/lib/thumb/v7e-m/nofp\libc.a(lib_a-reallocr.o)
 .data          0x20002004        0x0 c:/ti/ccs1220/ccs/tools/compiler/gcc-arm-none-eabi-9-2019-q4-major/bin/../lib/gcc/arm-none-eabi/9.2.1/../../../../arm-none-eabi/lib/thumb/v7e-m/nofp\libc.a(lib_a-s_frexp.o)
 .data          0x20002004        0x0 c:/ti/ccs1220/ccs/tools/compiler/gcc-arm-none-eabi-9-2019-q4-major/bin/../lib/gcc/arm-none-eabi/9.2.1/../../../../arm-none-eabi/lib/thumb/v7e-m/nofp\libc.a(lib_a-sbrkr.o)
 .data          0x20002004        0x0 c:/ti/ccs1220/ccs/tools/compiler/gcc-arm-none-eabi-9-2019-q4-major/bin/../lib/gcc/arm-none-eabi/9.2.1/../../../../arm-none-eabi/lib/thumb/v7e-m/nofp\libc.a(lib_a-stdio.o)
 .data          0x20002004        0x0 c:/ti/ccs1220/ccs/tools/compiler/gcc-arm-none-eabi-9-2019-q4-major/bin/../lib/gcc/arm-none-eabi/9.2.1/../../../../arm-none-eabi/lib/thumb/v7e-m/nofp\libc.a(lib_a-strncpy.o)
 .data          0x20002004        0x0 c:/ti/ccs1220/ccs/tools/compiler/gcc-arm-none-eabi-9-2019-q4-major/bin/../lib/gcc/arm-none-eabi/9.2.1/../../../../arm-none-eabi/lib/thumb/v7e-m/nofp\libc.a(lib_a-vfiprintf.o)
 .data          0x20002004        0x0 c:/ti/ccs1220/ccs/tools/compiler/gcc-arm-none-eabi-9-2019-q4-major/bin/../lib/gcc/arm-none-eabi/9.2.1/../../../../arm-none-eabi/lib/thumb/v7e-m/nofp\libc.a(lib_a-writer.o)
 .data          0x20002004        0x0 c:/ti/ccs1220/ccs/tools/compiler/gcc-arm-none-eabi-9-2019-q4-major/bin/../lib/gcc/arm-none-eabi/9.2.1/../../../../arm-none-eabi/lib/thumb/v7e-m/nofp\libc.a(lib_a-__atexit.o)
 .data          0x20002004        0x0 c:/ti/ccs1220/ccs/tools/compiler/gcc-arm-none-eabi-9-2019-q4-major/bin/../lib/gcc/arm-none-eabi/9.2.1/../../../../arm-none-eabi/lib/thumb/v7e-m/nofp\libc.a(lib_a-callocr.o)
 .data          0x20002004        0x0 c:/ti/ccs1220/ccs/tools/compiler/gcc-arm-none-eabi-9-2019-q4-major/bin/../lib/gcc/arm-none-eabi/9.2.1/../../../../arm-none-eabi/lib/thumb/v7e-m/nofp\libc.a(lib_a-closer.o)
 .data          0x20002004        0x0 c:/ti/ccs1220/ccs/tools/compiler/gcc-arm-none-eabi-9-2019-q4-major/bin/../lib/gcc/arm-none-eabi/9.2.1/../../../../arm-none-eabi/lib/thumb/v7e-m/nofp\libc.a(lib_a-fclose.o)
 .data          0x20002004        0x0 c:/ti/ccs1220/ccs/tools/compiler/gcc-arm-none-eabi-9-2019-q4-major/bin/../lib/gcc/arm-none-eabi/9.2.1/../../../../arm-none-eabi/lib/thumb/v7e-m/nofp\libc.a(lib_a-fputwc.o)
 .data          0x20002004        0x0 c:/ti/ccs1220/ccs/tools/compiler/gcc-arm-none-eabi-9-2019-q4-major/bin/../lib/gcc/arm-none-eabi/9.2.1/../../../../arm-none-eabi/lib/thumb/v7e-m/nofp\libc.a(lib_a-fstatr.o)
 .data          0x20002004        0x0 c:/ti/ccs1220/ccs/tools/compiler/gcc-arm-none-eabi-9-2019-q4-major/bin/../lib/gcc/arm-none-eabi/9.2.1/../../../../arm-none-eabi/lib/thumb/v7e-m/nofp\libc.a(lib_a-isattyr.o)
 .data          0x20002004        0x0 c:/ti/ccs1220/ccs/tools/compiler/gcc-arm-none-eabi-9-2019-q4-major/bin/../lib/gcc/arm-none-eabi/9.2.1/../../../../arm-none-eabi/lib/thumb/v7e-m/nofp\libc.a(lib_a-locale.o)
 .data          0x20002004        0x0 c:/ti/ccs1220/ccs/tools/compiler/gcc-arm-none-eabi-9-2019-q4-major/bin/../lib/gcc/arm-none-eabi/9.2.1/../../../../arm-none-eabi/lib/thumb/v7e-m/nofp\libc.a(lib_a-lseekr.o)
 .data          0x20002004        0x0 c:/ti/ccs1220/ccs/tools/compiler/gcc-arm-none-eabi-9-2019-q4-major/bin/../lib/gcc/arm-none-eabi/9.2.1/../../../../arm-none-eabi/lib/thumb/v7e-m/nofp\libc.a(lib_a-mbtowc_r.o)
 .data          0x20002004        0x0 c:/ti/ccs1220/ccs/tools/compiler/gcc-arm-none-eabi-9-2019-q4-major/bin/../lib/gcc/arm-none-eabi/9.2.1/../../../../arm-none-eabi/lib/thumb/v7e-m/nofp\libc.a(lib_a-readr.o)
 .data          0x20002004        0x0 c:/ti/ccs1220/ccs/tools/compiler/gcc-arm-none-eabi-9-2019-q4-major/bin/../lib/gcc/arm-none-eabi/9.2.1/../../../../arm-none-eabi/lib/thumb/v7e-m/nofp\libc.a(lib_a-reent.o)
 .data          0x20002004        0x0 c:/ti/ccs1220/ccs/tools/compiler/gcc-arm-none-eabi-9-2019-q4-major/bin/../lib/gcc/arm-none-eabi/9.2.1/../../../../arm-none-eabi/lib/thumb/v7e-m/nofp\libc.a(lib_a-strcmp.o)
 .data          0x20002004        0x0 c:/ti/ccs1220/ccs/tools/compiler/gcc-arm-none-eabi-9-2019-q4-major/bin/../lib/gcc/arm-none-eabi/9.2.1/../../../../arm-none-eabi/lib/thumb/v7e-m/nofp\libc.a(lib_a-wbuf.o)
 .data          0x20002004        0x0 c:/ti/ccs1220/ccs/tools/compiler/gcc-arm-none-eabi-9-2019-q4-major/bin/../lib/gcc/arm-none-eabi/9.2.1/../../../../arm-none-eabi/lib/thumb/v7e-m/nofp\libc.a(lib_a-wcrtomb.o)
 .data          0x20002004        0x0 c:/ti/ccs1220/ccs/tools/compiler/gcc-arm-none-eabi-9-2019-q4-major/bin/../lib/gcc/arm-none-eabi/9.2.1/../../../../arm-none-eabi/lib/thumb/v7e-m/nofp\libc.a(lib_a-wctomb_r.o)
 .data          0x20002004        0x0 c:/ti/ccs1220/ccs/tools/compiler/gcc-arm-none-eabi-9-2019-q4-major/bin/../lib/gcc/arm-none-eabi/9.2.1/../../../../arm-none-eabi/lib/thumb/v7e-m/nofp\libc.a(lib_a-ctype_.o)
 .data          0x20002004        0x0 c:/ti/ccs1220/ccs/tools/compiler/gcc-arm-none-eabi-9-2019-q4-major/bin/../lib/gcc/arm-none-eabi/9.2.1/thumb/v7e-m/nofp\libgcc.a(_arm_muldf3.o)
 .data          0x20002004        0x0 c:/ti/ccs1220/ccs/tools/compiler/gcc-arm-none-eabi-9-2019-q4-major/bin/../lib/gcc/arm-none-eabi/9.2.1/thumb/v7e-m/nofp\libgcc.a(_arm_addsubdf3.o)
 .data          0x20002004        0x0 c:/ti/ccs1220/ccs/tools/compiler/gcc-arm-none-eabi-9-2019-q4-major/bin/../lib/gcc/arm-none-eabi/9.2.1/thumb/v7e-m/nofp\libgcc.a(_arm_muldivdf3.o)
 .data          0x20002004        0x0 c:/ti/ccs1220/ccs/tools/compiler/gcc-arm-none-eabi-9-2019-q4-major/bin/../lib/gcc/arm-none-eabi/9.2.1/thumb/v7e-m/nofp\libgcc.a(_arm_cmpdf2.o)
 .data          0x20002004        0x0 c:/ti/ccs1220/ccs/tools/compiler/gcc-arm-none-eabi-9-2019-q4-major/bin/../lib/gcc/arm-none-eabi/9.2.1/thumb/v7e-m/nofp\libgcc.a(_arm_unorddf2.o)
 .data          0x20002004        0x0 c:/ti/ccs1220/ccs/tools/compiler/gcc-arm-none-eabi-9-2019-q4-major/bin/../lib/gcc/arm-none-eabi/9.2.1/thumb/v7e-m/nofp\libgcc.a(_arm_fixdfsi.o)
 .data          0x20002004        0x0 c:/ti/ccs1220/ccs/tools/compiler/gcc-arm-none-eabi-9-2019-q4-major/bin/../lib/gcc/arm-none-eabi/9.2.1/thumb/v7e-m/nofp\libgcc.a(_arm_truncdfsf2.o)
 .data          0x20002004        0x0 c:/ti/ccs1220/ccs/tools/compiler/gcc-arm-none-eabi-9-2019-q4-major/bin/../lib/gcc/arm-none-eabi/9.2.1/thumb/v7e-m/nofp\libgcc.a(_aeabi_uldivmod.o)
 .data          0x20002004        0x0 c:/ti/ccs1220/ccs/tools/compiler/gcc-arm-none-eabi-9-2019-q4-major/bin/../lib/gcc/arm-none-eabi/9.2.1/thumb/v7e-m/nofp\libgcc.a(_udivmoddi4.o)
 .data          0x20002004        0x0 c:/ti/ccs1220/ccs/tools/compiler/gcc-arm-none-eabi-9-2019-q4-major/bin/../lib/gcc/arm-none-eabi/9.2.1/thumb/v7e-m/nofp\libgcc.a(_dvmd_tls.o)
 .data          0x20002004        0x0 c:/ti/ccs1220/ccs/tools/compiler/gcc-arm-none-eabi-9-2019-q4-major/bin/../lib/gcc/arm-none-eabi/9.2.1/../../../../arm-none-eabi/lib/thumb/v7e-m/nofp\libnosys.a(close.o)
 .data          0x20002004        0x0 c:/ti/ccs1220/ccs/tools/compiler/gcc-arm-none-eabi-9-2019-q4-major/bin/../lib/gcc/arm-none-eabi/9.2.1/../../../../arm-none-eabi/lib/thumb/v7e-m/nofp\libnosys.a(fstat.o)
 .data          0x20002004        0x0 c:/ti/ccs1220/ccs/tools/compiler/gcc-arm-none-eabi-9-2019-q4-major/bin/../lib/gcc/arm-none-eabi/9.2.1/../../../../arm-none-eabi/lib/thumb/v7e-m/nofp\libnosys.a(isatty.o)
 .data          0x20002004        0x0 c:/ti/ccs1220/ccs/tools/compiler/gcc-arm-none-eabi-9-2019-q4-major/bin/../lib/gcc/arm-none-eabi/9.2.1/../../../../arm-none-eabi/lib/thumb/v7e-m/nofp\libnosys.a(lseek.o)
 .data          0x20002004        0x0 c:/ti/ccs1220/ccs/tools/compiler/gcc-arm-none-eabi-9-2019-q4-major/bin/../lib/gcc/arm-none-eabi/9.2.1/../../../../arm-none-eabi/lib/thumb/v7e-m/nofp\libnosys.a(read.o)
 .data          0x20002004        0x0 c:/ti/ccs1220/ccs/tools/compiler/gcc-arm-none-eabi-9-2019-q4-major/bin/../lib/gcc/arm-none-eabi/9.2.1/../../../../arm-none-eabi/lib/thumb/v7e-m/nofp\libnosys.a(sbrk.o)
 .data          0x20002004        0x0 c:/ti/ccs1220/ccs/tools/compiler/gcc-arm-none-eabi-9-2019-q4-major/bin/../lib/gcc/arm-none-eabi/9.2.1/../../../../arm-none-eabi/lib/thumb/v7e-m/nofp\libnosys.a(write.o)
 .data          0x20002004        0x0 c:/ti/ccs1220/ccs/tools/compiler/gcc-arm-none-eabi-9-2019-q4-major/bin/../lib/gcc/arm-none-eabi/9.2.1/../../../../arm-none-eabi/lib/thumb/v7e-m/nofp\libnosys.a(_exit.o)
 .data          0x20002004        0x0 c:/ti/ccs1220/ccs/tools/compiler/gcc-arm-none-eabi-9-2019-q4-major/bin/../lib/gcc/arm-none-eabi/9.2.1/thumb/v7e-m/nofp/crtend.o
 .data          0x20002004        0x0 c:/ti/ccs1220/ccs/tools/compiler/gcc-arm-none-eabi-9-2019-q4-major/bin/../lib/gcc/arm-none-eabi/9.2.1/thumb/v7e-m/nofp/crtn.o
 *(.data*)
 .data.SystemCoreClock
                0x20002004        0x4 ./Source/BSP/bsp.o
                0x20002004                SystemCoreClock
 .data.CAN_Data_0x010
                0x20002008        0x8 ./Source/Driver/CAN/CAN_Driver.o
                0x20002008                CAN_Data_0x010
 .data.CAN_Data_0x100
                0x20002010        0x5 ./Source/Driver/CAN/CAN_Driver.o
                0x20002010                CAN_Data_0x100
 *fill*         0x20002015        0x3 
 .data.CAN_Data_0x200
                0x20002018        0x8 ./Source/Driver/CAN/CAN_Driver.o
                0x20002018                CAN_Data_0x200
 .data.CAN_Data_0x3C2
                0x20002020        0x7 ./Source/Driver/CAN/CAN_Driver.o
                0x20002020                CAN_Data_0x3C2
 *fill*         0x20002027        0x1 
 .data.CAN_Data_0x500
                0x20002028        0x1 ./Source/Driver/CAN/CAN_Driver.o
                0x20002028                CAN_Data_0x500
 *fill*         0x20002029        0x3 
 .data.I2C_config
                0x2000202c       0x30 ./Source/Driver/I2C/I2C.o
                0x2000202c                I2C_config
 .data.UART_config
                0x2000205c       0x60 ./Source/Driver/UART/UART.o
                0x2000205c                UART_config
 .data.uxTopUsedPriority
                0x200020bc        0x4 ./Source/FreeRtos/tasks.o
                0x200020bc                uxTopUsedPriority
 .data.uxCriticalNesting
                0x200020c0        0x4 ./Source/FreeRtos/portable/GCC/ARM_CM4F/port.o
 .data.xFreeBytesRemaining
                0x200020c4        0x4 ./Source/FreeRtos/portable/MemMang/heap_2.o
 .data._impure_ptr
                0x200020c8        0x4 c:/ti/ccs1220/ccs/tools/compiler/gcc-arm-none-eabi-9-2019-q4-major/bin/../lib/gcc/arm-none-eabi/9.2.1/../../../../arm-none-eabi/lib/thumb/v7e-m/nofp\libc.a(lib_a-impure.o)
                0x200020c8                _impure_ptr
 *fill*         0x200020cc        0x4 
 .data.impure_data
                0x200020d0      0x428 c:/ti/ccs1220/ccs/tools/compiler/gcc-arm-none-eabi-9-2019-q4-major/bin/../lib/gcc/arm-none-eabi/9.2.1/../../../../arm-none-eabi/lib/thumb/v7e-m/nofp\libc.a(lib_a-impure.o)
 .data.__atexit_recursive_mutex
                0x200024f8        0x4 c:/ti/ccs1220/ccs/tools/compiler/gcc-arm-none-eabi-9-2019-q4-major/bin/../lib/gcc/arm-none-eabi/9.2.1/../../../../arm-none-eabi/lib/thumb/v7e-m/nofp\libc.a(lib_a-__call_atexit.o)
                0x200024f8                __atexit_recursive_mutex
 .data.__malloc_av_
                0x200024fc      0x408 c:/ti/ccs1220/ccs/tools/compiler/gcc-arm-none-eabi-9-2019-q4-major/bin/../lib/gcc/arm-none-eabi/9.2.1/../../../../arm-none-eabi/lib/thumb/v7e-m/nofp\libc.a(lib_a-mallocr.o)
                0x200024fc                __malloc_av_
 .data.__malloc_sbrk_base
                0x20002904        0x4 c:/ti/ccs1220/ccs/tools/compiler/gcc-arm-none-eabi-9-2019-q4-major/bin/../lib/gcc/arm-none-eabi/9.2.1/../../../../arm-none-eabi/lib/thumb/v7e-m/nofp\libc.a(lib_a-mallocr.o)
                0x20002904                __malloc_sbrk_base
 .data.__malloc_trim_threshold
                0x20002908        0x4 c:/ti/ccs1220/ccs/tools/compiler/gcc-arm-none-eabi-9-2019-q4-major/bin/../lib/gcc/arm-none-eabi/9.2.1/../../../../arm-none-eabi/lib/thumb/v7e-m/nofp\libc.a(lib_a-mallocr.o)
                0x20002908                __malloc_trim_threshold
 .data.__global_locale
                0x2000290c      0x16c c:/ti/ccs1220/ccs/tools/compiler/gcc-arm-none-eabi-9-2019-q4-major/bin/../lib/gcc/arm-none-eabi/9.2.1/../../../../arm-none-eabi/lib/thumb/v7e-m/nofp\libc.a(lib_a-locale.o)
                0x2000290c                __global_locale
                0x20002a78                . = ALIGN (0x4)
                0x20002a78                __data_end__ = .
                0x20002a78                _edata = __data_end__

.igot.plt       0x20002a78        0x0 load address 0x00032954
 .igot.plt      0x20002a78        0x0 c:/ti/ccs1220/ccs/tools/compiler/gcc-arm-none-eabi-9-2019-q4-major/bin/../lib/gcc/arm-none-eabi/9.2.1/thumb/v7e-m/nofp/crtbegin.o

.bss            0x20002a78     0x26a8 load address 0x00032954
                0x20002a78                __bss_start__ = .
 *(.bss)
 .bss           0x20002a78        0x0 c:/ti/ccs1220/ccs/tools/compiler/gcc-arm-none-eabi-9-2019-q4-major/bin/../lib/gcc/arm-none-eabi/9.2.1/thumb/v7e-m/nofp/crti.o
 .bss           0x20002a78       0x1c c:/ti/ccs1220/ccs/tools/compiler/gcc-arm-none-eabi-9-2019-q4-major/bin/../lib/gcc/arm-none-eabi/9.2.1/thumb/v7e-m/nofp/crtbegin.o
 .bss           0x20002a94        0x0 c:/ti/ccs1220/ccs/tools/compiler/gcc-arm-none-eabi-9-2019-q4-major/bin/../lib/gcc/arm-none-eabi/9.2.1/../../../../arm-none-eabi/lib/thumb/v7e-m/nofp/crt0.o
 .bss           0x20002a94        0x0 ./Source/App/Main/main.o
 .bss           0x20002a94        0x0 ./Source/BSP/bsp.o
 .bss           0x20002a94        0x0 ./Source/BSP/startup_tm4c_gnu.o
 .bss           0x20002a94        0x0 ./Source/Driver/ADC/ADC_Driver.o
 .bss           0x20002a94        0x0 ./Source/Driver/CAN/CAN_Driver.o
 .bss           0x20002a94        0x0 ./Source/Driver/GPIO/GPIOdriver.o
 .bss           0x20002a94        0x0 ./Source/Driver/I2C/I2C.o
 .bss           0x20002a94        0x0 ./Source/Driver/LCD/LCD.o
 .bss           0x20002a94        0x0 ./Source/Driver/SPI/SPI.o
 .bss           0x20002a94        0x0 ./Source/Driver/Timer/Timer.o
 .bss           0x20002a94        0x0 ./Source/Driver/Timer/timercnter.o
 .bss           0x20002a94        0x0 ./Source/Driver/UART/UART.o
 .bss           0x20002a94        0x0 ./Source/FreeRtos/croutine.o
 .bss           0x20002a94        0x0 ./Source/FreeRtos/event_groups.o
 .bss           0x20002a94        0x0 ./Source/FreeRtos/list.o
 .bss           0x20002a94        0x0 ./Source/FreeRtos/queue.o
 .bss           0x20002a94        0x0 ./Source/FreeRtos/stream_buffer.o
 .bss           0x20002a94        0x0 ./Source/FreeRtos/tasks.o
 .bss           0x20002a94        0x0 ./Source/FreeRtos/timers.o
 .bss           0x20002a94        0x0 ./Source/FreeRtos/portable/Common/mpu_wrappers.o
 .bss           0x20002a94        0x0 ./Source/FreeRtos/portable/GCC/ARM_CM4F/port.o
 .bss           0x20002a94        0x0 ./Source/FreeRtos/portable/MemMang/heap_2.o
 .bss           0x20002a94        0x0 ./Source/Middleware/MCP3208/MCP3208.o
 .bss           0x20002a94        0x0 ./Source/Middleware/OLED_SSD1306/SSD1306.o
 .bss           0x20002a94        0x0 ./Source/Middleware/RTC_DS3231/DS3231.o
 .bss           0x20002a94        0x0 c:/ti/ccs1220/ccs/tools/compiler/gcc-arm-none-eabi-9-2019-q4-major/bin/../lib/gcc/arm-none-eabi/9.2.1/../../../../arm-none-eabi/lib/thumb/v7e-m/nofp\libc.a(lib_a-exit.o)
 .bss           0x20002a94        0x0 c:/ti/ccs1220/ccs/tools/compiler/gcc-arm-none-eabi-9-2019-q4-major/bin/../lib/gcc/arm-none-eabi/9.2.1/../../../../arm-none-eabi/lib/thumb/v7e-m/nofp\libc.a(lib_a-impure.o)
 .bss           0x20002a94        0x0 c:/ti/ccs1220/ccs/tools/compiler/gcc-arm-none-eabi-9-2019-q4-major/bin/../lib/gcc/arm-none-eabi/9.2.1/../../../../arm-none-eabi/lib/thumb/v7e-m/nofp\libc.a(lib_a-init.o)
 .bss           0x20002a94        0x0 c:/ti/ccs1220/ccs/tools/compiler/gcc-arm-none-eabi-9-2019-q4-major/bin/../lib/gcc/arm-none-eabi/9.2.1/../../../../arm-none-eabi/lib/thumb/v7e-m/nofp\libc.a(lib_a-memcpy.o)
 .bss           0x20002a94        0x0 c:/ti/ccs1220/ccs/tools/compiler/gcc-arm-none-eabi-9-2019-q4-major/bin/../lib/gcc/arm-none-eabi/9.2.1/../../../../arm-none-eabi/lib/thumb/v7e-m/nofp\libc.a(lib_a-memset.o)
 .bss           0x20002a94        0x0 c:/ti/ccs1220/ccs/tools/compiler/gcc-arm-none-eabi-9-2019-q4-major/bin/../lib/gcc/arm-none-eabi/9.2.1/../../../../arm-none-eabi/lib/thumb/v7e-m/nofp\libc.a(lib_a-printf.o)
 .bss           0x20002a94        0x0 c:/ti/ccs1220/ccs/tools/compiler/gcc-arm-none-eabi-9-2019-q4-major/bin/../lib/gcc/arm-none-eabi/9.2.1/../../../../arm-none-eabi/lib/thumb/v7e-m/nofp\libc.a(lib_a-puts.o)
 .bss           0x20002a94        0x0 c:/ti/ccs1220/ccs/tools/compiler/gcc-arm-none-eabi-9-2019-q4-major/bin/../lib/gcc/arm-none-eabi/9.2.1/../../../../arm-none-eabi/lib/thumb/v7e-m/nofp\libc.a(lib_a-strlen.o)
 .bss           0x20002a94        0x0 c:/ti/ccs1220/ccs/tools/compiler/gcc-arm-none-eabi-9-2019-q4-major/bin/../lib/gcc/arm-none-eabi/9.2.1/../../../../arm-none-eabi/lib/thumb/v7e-m/nofp\libc.a(lib_a-vfprintf.o)
 .bss           0x20002a94        0x0 c:/ti/ccs1220/ccs/tools/compiler/gcc-arm-none-eabi-9-2019-q4-major/bin/../lib/gcc/arm-none-eabi/9.2.1/../../../../arm-none-eabi/lib/thumb/v7e-m/nofp\libc.a(lib_a-wsetup.o)
 .bss           0x20002a94        0x0 c:/ti/ccs1220/ccs/tools/compiler/gcc-arm-none-eabi-9-2019-q4-major/bin/../lib/gcc/arm-none-eabi/9.2.1/../../../../arm-none-eabi/lib/thumb/v7e-m/nofp\libc.a(lib_a-__call_atexit.o)
 .bss           0x20002a94        0x0 c:/ti/ccs1220/ccs/tools/compiler/gcc-arm-none-eabi-9-2019-q4-major/bin/../lib/gcc/arm-none-eabi/9.2.1/../../../../arm-none-eabi/lib/thumb/v7e-m/nofp\libc.a(lib_a-atexit.o)
 .bss           0x20002a94        0x0 c:/ti/ccs1220/ccs/tools/compiler/gcc-arm-none-eabi-9-2019-q4-major/bin/../lib/gcc/arm-none-eabi/9.2.1/../../../../arm-none-eabi/lib/thumb/v7e-m/nofp\libc.a(lib_a-dtoa.o)
 .bss           0x20002a94        0x0 c:/ti/ccs1220/ccs/tools/compiler/gcc-arm-none-eabi-9-2019-q4-major/bin/../lib/gcc/arm-none-eabi/9.2.1/../../../../arm-none-eabi/lib/thumb/v7e-m/nofp\libc.a(lib_a-fflush.o)
 .bss           0x20002a94        0x0 c:/ti/ccs1220/ccs/tools/compiler/gcc-arm-none-eabi-9-2019-q4-major/bin/../lib/gcc/arm-none-eabi/9.2.1/../../../../arm-none-eabi/lib/thumb/v7e-m/nofp\libc.a(lib_a-findfp.o)
 .bss           0x20002a94        0x0 c:/ti/ccs1220/ccs/tools/compiler/gcc-arm-none-eabi-9-2019-q4-major/bin/../lib/gcc/arm-none-eabi/9.2.1/../../../../arm-none-eabi/lib/thumb/v7e-m/nofp\libc.a(lib_a-fini.o)
 .bss           0x20002a94        0x0 c:/ti/ccs1220/ccs/tools/compiler/gcc-arm-none-eabi-9-2019-q4-major/bin/../lib/gcc/arm-none-eabi/9.2.1/../../../../arm-none-eabi/lib/thumb/v7e-m/nofp\libc.a(lib_a-freer.o)
 .bss           0x20002a94        0x0 c:/ti/ccs1220/ccs/tools/compiler/gcc-arm-none-eabi-9-2019-q4-major/bin/../lib/gcc/arm-none-eabi/9.2.1/../../../../arm-none-eabi/lib/thumb/v7e-m/nofp\libc.a(lib_a-fvwrite.o)
 .bss           0x20002a94        0x0 c:/ti/ccs1220/ccs/tools/compiler/gcc-arm-none-eabi-9-2019-q4-major/bin/../lib/gcc/arm-none-eabi/9.2.1/../../../../arm-none-eabi/lib/thumb/v7e-m/nofp\libc.a(lib_a-fwalk.o)
 .bss           0x20002a94        0x0 c:/ti/ccs1220/ccs/tools/compiler/gcc-arm-none-eabi-9-2019-q4-major/bin/../lib/gcc/arm-none-eabi/9.2.1/../../../../arm-none-eabi/lib/thumb/v7e-m/nofp\libc.a(lib_a-localeconv.o)
 .bss           0x20002a94        0x0 c:/ti/ccs1220/ccs/tools/compiler/gcc-arm-none-eabi-9-2019-q4-major/bin/../lib/gcc/arm-none-eabi/9.2.1/../../../../arm-none-eabi/lib/thumb/v7e-m/nofp\libc.a(lib_a-lock.o)
 .bss           0x20002a94        0x0 c:/ti/ccs1220/ccs/tools/compiler/gcc-arm-none-eabi-9-2019-q4-major/bin/../lib/gcc/arm-none-eabi/9.2.1/../../../../arm-none-eabi/lib/thumb/v7e-m/nofp\libc.a(lib_a-makebuf.o)
 .bss           0x20002a94        0x0 c:/ti/ccs1220/ccs/tools/compiler/gcc-arm-none-eabi-9-2019-q4-major/bin/../lib/gcc/arm-none-eabi/9.2.1/../../../../arm-none-eabi/lib/thumb/v7e-m/nofp\libc.a(lib_a-mallocr.o)
 .bss           0x20002a94        0x0 c:/ti/ccs1220/ccs/tools/compiler/gcc-arm-none-eabi-9-2019-q4-major/bin/../lib/gcc/arm-none-eabi/9.2.1/../../../../arm-none-eabi/lib/thumb/v7e-m/nofp\libc.a(lib_a-memchr.o)
 .bss           0x20002a94        0x0 c:/ti/ccs1220/ccs/tools/compiler/gcc-arm-none-eabi-9-2019-q4-major/bin/../lib/gcc/arm-none-eabi/9.2.1/../../../../arm-none-eabi/lib/thumb/v7e-m/nofp\libc.a(lib_a-memmove.o)
 .bss           0x20002a94        0x0 c:/ti/ccs1220/ccs/tools/compiler/gcc-arm-none-eabi-9-2019-q4-major/bin/../lib/gcc/arm-none-eabi/9.2.1/../../../../arm-none-eabi/lib/thumb/v7e-m/nofp\libc.a(lib_a-mlock.o)
 .bss           0x20002a94        0x0 c:/ti/ccs1220/ccs/tools/compiler/gcc-arm-none-eabi-9-2019-q4-major/bin/../lib/gcc/arm-none-eabi/9.2.1/../../../../arm-none-eabi/lib/thumb/v7e-m/nofp\libc.a(lib_a-mprec.o)
 .bss           0x20002a94        0x0 c:/ti/ccs1220/ccs/tools/compiler/gcc-arm-none-eabi-9-2019-q4-major/bin/../lib/gcc/arm-none-eabi/9.2.1/../../../../arm-none-eabi/lib/thumb/v7e-m/nofp\libc.a(lib_a-reallocr.o)
 .bss           0x20002a94        0x0 c:/ti/ccs1220/ccs/tools/compiler/gcc-arm-none-eabi-9-2019-q4-major/bin/../lib/gcc/arm-none-eabi/9.2.1/../../../../arm-none-eabi/lib/thumb/v7e-m/nofp\libc.a(lib_a-s_frexp.o)
 .bss           0x20002a94        0x0 c:/ti/ccs1220/ccs/tools/compiler/gcc-arm-none-eabi-9-2019-q4-major/bin/../lib/gcc/arm-none-eabi/9.2.1/../../../../arm-none-eabi/lib/thumb/v7e-m/nofp\libc.a(lib_a-sbrkr.o)
 .bss           0x20002a94        0x0 c:/ti/ccs1220/ccs/tools/compiler/gcc-arm-none-eabi-9-2019-q4-major/bin/../lib/gcc/arm-none-eabi/9.2.1/../../../../arm-none-eabi/lib/thumb/v7e-m/nofp\libc.a(lib_a-stdio.o)
 .bss           0x20002a94        0x0 c:/ti/ccs1220/ccs/tools/compiler/gcc-arm-none-eabi-9-2019-q4-major/bin/../lib/gcc/arm-none-eabi/9.2.1/../../../../arm-none-eabi/lib/thumb/v7e-m/nofp\libc.a(lib_a-strncpy.o)
 .bss           0x20002a94        0x0 c:/ti/ccs1220/ccs/tools/compiler/gcc-arm-none-eabi-9-2019-q4-major/bin/../lib/gcc/arm-none-eabi/9.2.1/../../../../arm-none-eabi/lib/thumb/v7e-m/nofp\libc.a(lib_a-vfiprintf.o)
 .bss           0x20002a94        0x0 c:/ti/ccs1220/ccs/tools/compiler/gcc-arm-none-eabi-9-2019-q4-major/bin/../lib/gcc/arm-none-eabi/9.2.1/../../../../arm-none-eabi/lib/thumb/v7e-m/nofp\libc.a(lib_a-writer.o)
 .bss           0x20002a94        0x0 c:/ti/ccs1220/ccs/tools/compiler/gcc-arm-none-eabi-9-2019-q4-major/bin/../lib/gcc/arm-none-eabi/9.2.1/../../../../arm-none-eabi/lib/thumb/v7e-m/nofp\libc.a(lib_a-__atexit.o)
 .bss           0x20002a94        0x0 c:/ti/ccs1220/ccs/tools/compiler/gcc-arm-none-eabi-9-2019-q4-major/bin/../lib/gcc/arm-none-eabi/9.2.1/../../../../arm-none-eabi/lib/thumb/v7e-m/nofp\libc.a(lib_a-callocr.o)
 .bss           0x20002a94        0x0 c:/ti/ccs1220/ccs/tools/compiler/gcc-arm-none-eabi-9-2019-q4-major/bin/../lib/gcc/arm-none-eabi/9.2.1/../../../../arm-none-eabi/lib/thumb/v7e-m/nofp\libc.a(lib_a-closer.o)
 .bss           0x20002a94        0x0 c:/ti/ccs1220/ccs/tools/compiler/gcc-arm-none-eabi-9-2019-q4-major/bin/../lib/gcc/arm-none-eabi/9.2.1/../../../../arm-none-eabi/lib/thumb/v7e-m/nofp\libc.a(lib_a-fclose.o)
 .bss           0x20002a94        0x0 c:/ti/ccs1220/ccs/tools/compiler/gcc-arm-none-eabi-9-2019-q4-major/bin/../lib/gcc/arm-none-eabi/9.2.1/../../../../arm-none-eabi/lib/thumb/v7e-m/nofp\libc.a(lib_a-fputwc.o)
 .bss           0x20002a94        0x0 c:/ti/ccs1220/ccs/tools/compiler/gcc-arm-none-eabi-9-2019-q4-major/bin/../lib/gcc/arm-none-eabi/9.2.1/../../../../arm-none-eabi/lib/thumb/v7e-m/nofp\libc.a(lib_a-fstatr.o)
 .bss           0x20002a94        0x0 c:/ti/ccs1220/ccs/tools/compiler/gcc-arm-none-eabi-9-2019-q4-major/bin/../lib/gcc/arm-none-eabi/9.2.1/../../../../arm-none-eabi/lib/thumb/v7e-m/nofp\libc.a(lib_a-isattyr.o)
 .bss           0x20002a94        0x0 c:/ti/ccs1220/ccs/tools/compiler/gcc-arm-none-eabi-9-2019-q4-major/bin/../lib/gcc/arm-none-eabi/9.2.1/../../../../arm-none-eabi/lib/thumb/v7e-m/nofp\libc.a(lib_a-locale.o)
 .bss           0x20002a94        0x0 c:/ti/ccs1220/ccs/tools/compiler/gcc-arm-none-eabi-9-2019-q4-major/bin/../lib/gcc/arm-none-eabi/9.2.1/../../../../arm-none-eabi/lib/thumb/v7e-m/nofp\libc.a(lib_a-lseekr.o)
 .bss           0x20002a94        0x0 c:/ti/ccs1220/ccs/tools/compiler/gcc-arm-none-eabi-9-2019-q4-major/bin/../lib/gcc/arm-none-eabi/9.2.1/../../../../arm-none-eabi/lib/thumb/v7e-m/nofp\libc.a(lib_a-mbtowc_r.o)
 .bss           0x20002a94        0x0 c:/ti/ccs1220/ccs/tools/compiler/gcc-arm-none-eabi-9-2019-q4-major/bin/../lib/gcc/arm-none-eabi/9.2.1/../../../../arm-none-eabi/lib/thumb/v7e-m/nofp\libc.a(lib_a-readr.o)
 .bss           0x20002a94        0x0 c:/ti/ccs1220/ccs/tools/compiler/gcc-arm-none-eabi-9-2019-q4-major/bin/../lib/gcc/arm-none-eabi/9.2.1/../../../../arm-none-eabi/lib/thumb/v7e-m/nofp\libc.a(lib_a-reent.o)
 .bss           0x20002a94        0x0 c:/ti/ccs1220/ccs/tools/compiler/gcc-arm-none-eabi-9-2019-q4-major/bin/../lib/gcc/arm-none-eabi/9.2.1/../../../../arm-none-eabi/lib/thumb/v7e-m/nofp\libc.a(lib_a-strcmp.o)
 .bss           0x20002a94        0x0 c:/ti/ccs1220/ccs/tools/compiler/gcc-arm-none-eabi-9-2019-q4-major/bin/../lib/gcc/arm-none-eabi/9.2.1/../../../../arm-none-eabi/lib/thumb/v7e-m/nofp\libc.a(lib_a-wbuf.o)
 .bss           0x20002a94        0x0 c:/ti/ccs1220/ccs/tools/compiler/gcc-arm-none-eabi-9-2019-q4-major/bin/../lib/gcc/arm-none-eabi/9.2.1/../../../../arm-none-eabi/lib/thumb/v7e-m/nofp\libc.a(lib_a-wcrtomb.o)
 .bss           0x20002a94        0x0 c:/ti/ccs1220/ccs/tools/compiler/gcc-arm-none-eabi-9-2019-q4-major/bin/../lib/gcc/arm-none-eabi/9.2.1/../../../../arm-none-eabi/lib/thumb/v7e-m/nofp\libc.a(lib_a-wctomb_r.o)
 .bss           0x20002a94        0x0 c:/ti/ccs1220/ccs/tools/compiler/gcc-arm-none-eabi-9-2019-q4-major/bin/../lib/gcc/arm-none-eabi/9.2.1/../../../../arm-none-eabi/lib/thumb/v7e-m/nofp\libc.a(lib_a-ctype_.o)
 .bss           0x20002a94        0x0 c:/ti/ccs1220/ccs/tools/compiler/gcc-arm-none-eabi-9-2019-q4-major/bin/../lib/gcc/arm-none-eabi/9.2.1/thumb/v7e-m/nofp\libgcc.a(_arm_muldf3.o)
 .bss           0x20002a94        0x0 c:/ti/ccs1220/ccs/tools/compiler/gcc-arm-none-eabi-9-2019-q4-major/bin/../lib/gcc/arm-none-eabi/9.2.1/thumb/v7e-m/nofp\libgcc.a(_arm_addsubdf3.o)
 .bss           0x20002a94        0x0 c:/ti/ccs1220/ccs/tools/compiler/gcc-arm-none-eabi-9-2019-q4-major/bin/../lib/gcc/arm-none-eabi/9.2.1/thumb/v7e-m/nofp\libgcc.a(_arm_muldivdf3.o)
 .bss           0x20002a94        0x0 c:/ti/ccs1220/ccs/tools/compiler/gcc-arm-none-eabi-9-2019-q4-major/bin/../lib/gcc/arm-none-eabi/9.2.1/thumb/v7e-m/nofp\libgcc.a(_arm_cmpdf2.o)
 .bss           0x20002a94        0x0 c:/ti/ccs1220/ccs/tools/compiler/gcc-arm-none-eabi-9-2019-q4-major/bin/../lib/gcc/arm-none-eabi/9.2.1/thumb/v7e-m/nofp\libgcc.a(_arm_unorddf2.o)
 .bss           0x20002a94        0x0 c:/ti/ccs1220/ccs/tools/compiler/gcc-arm-none-eabi-9-2019-q4-major/bin/../lib/gcc/arm-none-eabi/9.2.1/thumb/v7e-m/nofp\libgcc.a(_arm_fixdfsi.o)
 .bss           0x20002a94        0x0 c:/ti/ccs1220/ccs/tools/compiler/gcc-arm-none-eabi-9-2019-q4-major/bin/../lib/gcc/arm-none-eabi/9.2.1/thumb/v7e-m/nofp\libgcc.a(_arm_truncdfsf2.o)
 .bss           0x20002a94        0x0 c:/ti/ccs1220/ccs/tools/compiler/gcc-arm-none-eabi-9-2019-q4-major/bin/../lib/gcc/arm-none-eabi/9.2.1/thumb/v7e-m/nofp\libgcc.a(_aeabi_uldivmod.o)
 .bss           0x20002a94        0x0 c:/ti/ccs1220/ccs/tools/compiler/gcc-arm-none-eabi-9-2019-q4-major/bin/../lib/gcc/arm-none-eabi/9.2.1/thumb/v7e-m/nofp\libgcc.a(_udivmoddi4.o)
 .bss           0x20002a94        0x0 c:/ti/ccs1220/ccs/tools/compiler/gcc-arm-none-eabi-9-2019-q4-major/bin/../lib/gcc/arm-none-eabi/9.2.1/thumb/v7e-m/nofp\libgcc.a(_dvmd_tls.o)
 .bss           0x20002a94        0x0 c:/ti/ccs1220/ccs/tools/compiler/gcc-arm-none-eabi-9-2019-q4-major/bin/../lib/gcc/arm-none-eabi/9.2.1/../../../../arm-none-eabi/lib/thumb/v7e-m/nofp\libnosys.a(close.o)
 .bss           0x20002a94        0x0 c:/ti/ccs1220/ccs/tools/compiler/gcc-arm-none-eabi-9-2019-q4-major/bin/../lib/gcc/arm-none-eabi/9.2.1/../../../../arm-none-eabi/lib/thumb/v7e-m/nofp\libnosys.a(fstat.o)
 .bss           0x20002a94        0x0 c:/ti/ccs1220/ccs/tools/compiler/gcc-arm-none-eabi-9-2019-q4-major/bin/../lib/gcc/arm-none-eabi/9.2.1/../../../../arm-none-eabi/lib/thumb/v7e-m/nofp\libnosys.a(isatty.o)
 .bss           0x20002a94        0x0 c:/ti/ccs1220/ccs/tools/compiler/gcc-arm-none-eabi-9-2019-q4-major/bin/../lib/gcc/arm-none-eabi/9.2.1/../../../../arm-none-eabi/lib/thumb/v7e-m/nofp\libnosys.a(lseek.o)
 .bss           0x20002a94        0x0 c:/ti/ccs1220/ccs/tools/compiler/gcc-arm-none-eabi-9-2019-q4-major/bin/../lib/gcc/arm-none-eabi/9.2.1/../../../../arm-none-eabi/lib/thumb/v7e-m/nofp\libnosys.a(read.o)
 .bss           0x20002a94        0x0 c:/ti/ccs1220/ccs/tools/compiler/gcc-arm-none-eabi-9-2019-q4-major/bin/../lib/gcc/arm-none-eabi/9.2.1/../../../../arm-none-eabi/lib/thumb/v7e-m/nofp\libnosys.a(sbrk.o)
 .bss           0x20002a94        0x0 c:/ti/ccs1220/ccs/tools/compiler/gcc-arm-none-eabi-9-2019-q4-major/bin/../lib/gcc/arm-none-eabi/9.2.1/../../../../arm-none-eabi/lib/thumb/v7e-m/nofp\libnosys.a(write.o)
 .bss           0x20002a94        0x0 c:/ti/ccs1220/ccs/tools/compiler/gcc-arm-none-eabi-9-2019-q4-major/bin/../lib/gcc/arm-none-eabi/9.2.1/../../../../arm-none-eabi/lib/thumb/v7e-m/nofp\libnosys.a(_exit.o)
 .bss           0x20002a94        0x0 c:/ti/ccs1220/ccs/tools/compiler/gcc-arm-none-eabi-9-2019-q4-major/bin/../lib/gcc/arm-none-eabi/9.2.1/thumb/v7e-m/nofp/crtend.o
 .bss           0x20002a94        0x0 c:/ti/ccs1220/ccs/tools/compiler/gcc-arm-none-eabi-9-2019-q4-major/bin/../lib/gcc/arm-none-eabi/9.2.1/thumb/v7e-m/nofp/crtn.o
 *(.bss*)
 .bss.ADC_port_Flag
                0x20002a94        0xc ./Source/Driver/ADC/ADC_Driver.o
 .bss.ADC_Init_Flag
                0x20002aa0        0x1 ./Source/Driver/ADC/ADC_Driver.o
 .bss.CAN0_Init_Flag
                0x20002aa1        0x1 ./Source/Driver/CAN/CAN_Driver.o
 *fill*         0x20002aa2        0x2 
 .bss.Port_IO_flag
                0x20002aa4        0x6 ./Source/Driver/GPIO/GPIOdriver.o
 .bss.GPIO_Init_flag
                0x20002aaa        0x1 ./Source/Driver/GPIO/GPIOdriver.o
 *fill*         0x20002aab        0x1 
 .bss.I2C_Index
                0x20002aac        0x4 ./Source/Driver/I2C/I2C.o
 .bss.error_code
                0x20002ab0        0x4 ./Source/Driver/I2C/I2C.o
 .bss.I2C_Init_Flag
                0x20002ab4        0x1 ./Source/Driver/I2C/I2C.o
 *fill*         0x20002ab5        0x3 
 .bss.I2C_TPR   0x20002ab8        0x4 ./Source/Driver/I2C/I2C.o
 .bss.I2C_is_first_data
                0x20002abc        0x1 ./Source/Driver/I2C/I2C.o
 .bss.SPI_2_Init_Flag
                0x20002abd        0x1 ./Source/Driver/SPI/SPI.o
 *fill*         0x20002abe        0x2 
 .bss.Timer_Flag
                0x20002ac0        0x1 ./Source/Driver/Timer/Timer.o
                0x20002ac0                Timer_Flag
 .bss.Timer0_Init_flag
                0x20002ac1        0x1 ./Source/Driver/Timer/Timer.o
 .bss.Count_20ms
                0x20002ac2        0x2 ./Source/Driver/Timer/Timer.o
 .bss.Count_30ms
                0x20002ac4        0x2 ./Source/Driver/Timer/Timer.o
 .bss.Count_50ms
                0x20002ac6        0x2 ./Source/Driver/Timer/Timer.o
 .bss.Count_100ms
                0x20002ac8        0x2 ./Source/Driver/Timer/Timer.o
 .bss.Count_200ms
                0x20002aca        0x2 ./Source/Driver/Timer/Timer.o
 .bss.Count_500ms
                0x20002acc        0x2 ./Source/Driver/Timer/Timer.o
 .bss.Count_1000ms
                0x20002ace        0x2 ./Source/Driver/Timer/Timer.o
 .bss.Count_2000ms
                0x20002ad0        0x2 ./Source/Driver/Timer/Timer.o
 .bss.UART_Init_Flag
                0x20002ad2        0x1 ./Source/Driver/UART/UART.o
 *fill*         0x20002ad3        0x1 
 .bss.UART_Index
                0x20002ad4        0x4 ./Source/Driver/UART/UART.o
 .bss.BaudRate_Integer
                0x20002ad8        0x4 ./Source/Driver/UART/UART.o
 .bss.BaudRate_Float
                0x20002adc        0x4 ./Source/Driver/UART/UART.o
 .bss.pxCurrentTCB
                0x20002ae0        0x4 ./Source/FreeRtos/tasks.o
                0x20002ae0                pxCurrentTCB
 .bss.pxReadyTasksLists
                0x20002ae4       0x64 ./Source/FreeRtos/tasks.o
 .bss.xDelayedTaskList1
                0x20002b48       0x14 ./Source/FreeRtos/tasks.o
 .bss.xDelayedTaskList2
                0x20002b5c       0x14 ./Source/FreeRtos/tasks.o
 .bss.pxDelayedTaskList
                0x20002b70        0x4 ./Source/FreeRtos/tasks.o
 .bss.pxOverflowDelayedTaskList
                0x20002b74        0x4 ./Source/FreeRtos/tasks.o
 .bss.xPendingReadyList
                0x20002b78       0x14 ./Source/FreeRtos/tasks.o
 .bss.xTasksWaitingTermination
                0x20002b8c       0x14 ./Source/FreeRtos/tasks.o
 .bss.uxDeletedTasksWaitingCleanUp
                0x20002ba0        0x4 ./Source/FreeRtos/tasks.o
 .bss.xSuspendedTaskList
                0x20002ba4       0x14 ./Source/FreeRtos/tasks.o
 .bss.uxCurrentNumberOfTasks
                0x20002bb8        0x4 ./Source/FreeRtos/tasks.o
 .bss.xTickCount
                0x20002bbc        0x4 ./Source/FreeRtos/tasks.o
 .bss.uxTopReadyPriority
                0x20002bc0        0x4 ./Source/FreeRtos/tasks.o
 .bss.xSchedulerRunning
                0x20002bc4        0x4 ./Source/FreeRtos/tasks.o
 .bss.xPendedTicks
                0x20002bc8        0x4 ./Source/FreeRtos/tasks.o
 .bss.xYieldPending
                0x20002bcc        0x4 ./Source/FreeRtos/tasks.o
 .bss.xNumOfOverflows
                0x20002bd0        0x4 ./Source/FreeRtos/tasks.o
 .bss.uxTaskNumber
                0x20002bd4        0x4 ./Source/FreeRtos/tasks.o
 .bss.xNextTaskUnblockTime
                0x20002bd8        0x4 ./Source/FreeRtos/tasks.o
 .bss.xIdleTaskHandle
                0x20002bdc        0x4 ./Source/FreeRtos/tasks.o
 .bss.uxSchedulerSuspended
                0x20002be0        0x4 ./Source/FreeRtos/tasks.o
 .bss.xActiveTimerList1
                0x20002be4       0x14 ./Source/FreeRtos/timers.o
 .bss.xActiveTimerList2
                0x20002bf8       0x14 ./Source/FreeRtos/timers.o
 .bss.pxCurrentTimerList
                0x20002c0c        0x4 ./Source/FreeRtos/timers.o
 .bss.pxOverflowTimerList
                0x20002c10        0x4 ./Source/FreeRtos/timers.o
 .bss.xTimerQueue
                0x20002c14        0x4 ./Source/FreeRtos/timers.o
 .bss.xTimerTaskHandle
                0x20002c18        0x4 ./Source/FreeRtos/timers.o
 .bss.xLastTime.6585
                0x20002c1c        0x4 ./Source/FreeRtos/timers.o
 .bss.ucMaxSysCallPriority
                0x20002c20        0x1 ./Source/FreeRtos/portable/GCC/ARM_CM4F/port.o
 *fill*         0x20002c21        0x3 
 .bss.ulMaxPRIGROUPValue
                0x20002c24        0x4 ./Source/FreeRtos/portable/GCC/ARM_CM4F/port.o
 .bss.ucHeap    0x20002c28     0x2000 ./Source/FreeRtos/portable/MemMang/heap_2.o
 .bss.xStart    0x20004c28        0x8 ./Source/FreeRtos/portable/MemMang/heap_2.o
 .bss.xEnd      0x20004c30        0x8 ./Source/FreeRtos/portable/MemMang/heap_2.o
 .bss.xHeapHasBeenInitialised.6345
                0x20004c38        0x4 ./Source/FreeRtos/portable/MemMang/heap_2.o
 .bss.MCP3208_Rec_data
                0x20004c3c       0x20 ./Source/Middleware/MCP3208/MCP3208.o
                0x20004c3c                MCP3208_Rec_data
 .bss.channel_no
                0x20004c5c        0x1 ./Source/Middleware/MCP3208/MCP3208.o
 *fill*         0x20004c5d        0x3 
 .bss.temp_rev_data.7794
                0x20004c60        0x4 ./Source/Middleware/MCP3208/MCP3208.o
 .bss.temp_rev_byte.7792
                0x20004c64        0x1 ./Source/Middleware/MCP3208/MCP3208.o
 .bss.temp_send_byte.7793
                0x20004c65        0x1 ./Source/Middleware/MCP3208/MCP3208.o
 .bss.ssd1306_current_col
                0x20004c66        0x1 ./Source/Middleware/OLED_SSD1306/SSD1306.o
                0x20004c66                ssd1306_current_col
 .bss.ssd1306_current_page
                0x20004c67        0x1 ./Source/Middleware/OLED_SSD1306/SSD1306.o
                0x20004c67                ssd1306_current_page
 .bss.__malloc_current_mallinfo
                0x20004c68       0x28 c:/ti/ccs1220/ccs/tools/compiler/gcc-arm-none-eabi-9-2019-q4-major/bin/../lib/gcc/arm-none-eabi/9.2.1/../../../../arm-none-eabi/lib/thumb/v7e-m/nofp\libc.a(lib_a-mallocr.o)
                0x20004c68                __malloc_current_mallinfo
 .bss.__malloc_max_sbrked_mem
                0x20004c90        0x4 c:/ti/ccs1220/ccs/tools/compiler/gcc-arm-none-eabi-9-2019-q4-major/bin/../lib/gcc/arm-none-eabi/9.2.1/../../../../arm-none-eabi/lib/thumb/v7e-m/nofp\libc.a(lib_a-mallocr.o)
                0x20004c90                __malloc_max_sbrked_mem
 .bss.__malloc_max_total_mem
                0x20004c94        0x4 c:/ti/ccs1220/ccs/tools/compiler/gcc-arm-none-eabi-9-2019-q4-major/bin/../lib/gcc/arm-none-eabi/9.2.1/../../../../arm-none-eabi/lib/thumb/v7e-m/nofp\libc.a(lib_a-mallocr.o)
                0x20004c94                __malloc_max_total_mem
 .bss.__malloc_top_pad
                0x20004c98        0x4 c:/ti/ccs1220/ccs/tools/compiler/gcc-arm-none-eabi-9-2019-q4-major/bin/../lib/gcc/arm-none-eabi/9.2.1/../../../../arm-none-eabi/lib/thumb/v7e-m/nofp\libc.a(lib_a-mallocr.o)
                0x20004c98                __malloc_top_pad
 .bss._PathLocale
                0x20004c9c        0x4 c:/ti/ccs1220/ccs/tools/compiler/gcc-arm-none-eabi-9-2019-q4-major/bin/../lib/gcc/arm-none-eabi/9.2.1/../../../../arm-none-eabi/lib/thumb/v7e-m/nofp\libc.a(lib_a-locale.o)
                0x20004c9c                _PathLocale
 .bss.heap_end.4144
                0x20004ca0        0x4 c:/ti/ccs1220/ccs/tools/compiler/gcc-arm-none-eabi-9-2019-q4-major/bin/../lib/gcc/arm-none-eabi/9.2.1/../../../../arm-none-eabi/lib/thumb/v7e-m/nofp\libnosys.a(sbrk.o)
 *(COMMON)
 COMMON         0x20004ca4        0xe ./Source/Driver/LCD/LCD.o
                0x20004ca4                D5_data
                0x20004ca5                EN
                0x20004ca6                D6_data
                0x20004ca7                D2_data
                0x20004ca8                D1_data
                0x20004ca9                D3_data
                0x20004caa                D7_data
                0x20004cab                D4_data
                0x20004cac                D5
                0x20004cad                D4
                0x20004cae                D7
                0x20004caf                RS
                0x20004cb0                D6
                0x20004cb1                D0_data
 *fill*         0x20004cb2        0x2 
 COMMON         0x20004cb4        0x4 ./Source/Driver/UART/UART.o
                0x20004cb4                temp
 COMMON         0x20004cb8       0x40 ./Source/FreeRtos/queue.o
                0x20004cb8                xQueueRegistry
 COMMON         0x20004cf8      0x400 ./Source/Middleware/OLED_SSD1306/SSD1306.o
                0x20004cf8                ssd1306_buffer
 COMMON         0x200050f8       0x21 c:/ti/ccs1220/ccs/tools/compiler/gcc-arm-none-eabi-9-2019-q4-major/bin/../lib/gcc/arm-none-eabi/9.2.1/../../../../arm-none-eabi/lib/thumb/v7e-m/nofp\libc.a(lib_a-lock.o)
                0x200050f8                __lock___atexit_recursive_mutex
                0x200050fc                __lock___arc4random_mutex
                0x20005100                __lock___env_recursive_mutex
                0x20005104                __lock___sinit_recursive_mutex
                0x20005108                __lock___malloc_recursive_mutex
                0x2000510c                __lock___at_quick_exit_mutex
                0x20005110                __lock___dd_hash_mutex
                0x20005114                __lock___tz_mutex
                0x20005118                __lock___sfp_recursive_mutex
 *fill*         0x20005119        0x3 
 COMMON         0x2000511c        0x4 c:/ti/ccs1220/ccs/tools/compiler/gcc-arm-none-eabi-9-2019-q4-major/bin/../lib/gcc/arm-none-eabi/9.2.1/../../../../arm-none-eabi/lib/thumb/v7e-m/nofp\libc.a(lib_a-reent.o)
                0x2000511c                errno
                0x20005120                . = ALIGN (0x4)
                0x20005120                _ebss = .
                0x20005120                __bss_end__ = .
                0x20005120                PROVIDE (end = _ebss)
                [!provide]                PROVIDE (_end = _ebss)
                [!provide]                PROVIDE (__end__ = _ebss)

.heap           0x20005120     0x1000 load address 0x00034ffc
                0x20005120                __heap_start__ = .
                0x20006120                . = (. + HEAP_SIZE)
 *fill*         0x20005120     0x1000 
                0x20006120                . = ALIGN (0x4)
                0x20006120                __heap_end__ = .

.stack          0x20006120     0x1000 load address 0x00035ffc
                0x20006120                __stack_start__ = .
                0x20007120                . = (. + STACK_SIZE)
 *fill*         0x20006120     0x1000 
                0x20007120                . = ALIGN (0x4)
                0x20007120                __stack_end__ = .

/DISCARD/
 libc.a(*)
 libm.a(*)
 libgcc.a(*)
START GROUP
LOAD c:/ti/ccs1220/ccs/tools/compiler/gcc-arm-none-eabi-9-2019-q4-major/bin/../lib/gcc/arm-none-eabi/9.2.1/../../../../arm-none-eabi/lib/thumb/v7e-m/nofp\libc.a
END GROUP
START GROUP
LOAD c:/ti/ccs1220/ccs/tools/compiler/gcc-arm-none-eabi-9-2019-q4-major/bin/../lib/gcc/arm-none-eabi/9.2.1/thumb/v7e-m/nofp\libgcc.a
LOAD c:/ti/ccs1220/ccs/tools/compiler/gcc-arm-none-eabi-9-2019-q4-major/bin/../lib/gcc/arm-none-eabi/9.2.1/../../../../arm-none-eabi/lib/thumb/v7e-m/nofp\libg.a
LOAD c:/ti/ccs1220/ccs/tools/compiler/gcc-arm-none-eabi-9-2019-q4-major/bin/../lib/gcc/arm-none-eabi/9.2.1/../../../../arm-none-eabi/lib/thumb/v7e-m/nofp\libc.a
END GROUP
START GROUP
LOAD c:/ti/ccs1220/ccs/tools/compiler/gcc-arm-none-eabi-9-2019-q4-major/bin/../lib/gcc/arm-none-eabi/9.2.1/thumb/v7e-m/nofp\libgcc.a
LOAD c:/ti/ccs1220/ccs/tools/compiler/gcc-arm-none-eabi-9-2019-q4-major/bin/../lib/gcc/arm-none-eabi/9.2.1/../../../../arm-none-eabi/lib/thumb/v7e-m/nofp\libc.a
LOAD c:/ti/ccs1220/ccs/tools/compiler/gcc-arm-none-eabi-9-2019-q4-major/bin/../lib/gcc/arm-none-eabi/9.2.1/../../../../arm-none-eabi/lib/thumb/v7e-m/nofp\libnosys.a
END GROUP
LOAD c:/ti/ccs1220/ccs/tools/compiler/gcc-arm-none-eabi-9-2019-q4-major/bin/../lib/gcc/arm-none-eabi/9.2.1/thumb/v7e-m/nofp/crtend.o
LOAD c:/ti/ccs1220/ccs/tools/compiler/gcc-arm-none-eabi-9-2019-q4-major/bin/../lib/gcc/arm-none-eabi/9.2.1/thumb/v7e-m/nofp/crtn.o
OUTPUT(Application.out elf32-littlearm)

.ARM.attributes
                0x00000000       0x2e
 .ARM.attributes
                0x00000000       0x1e c:/ti/ccs1220/ccs/tools/compiler/gcc-arm-none-eabi-9-2019-q4-major/bin/../lib/gcc/arm-none-eabi/9.2.1/thumb/v7e-m/nofp/crti.o
 .ARM.attributes
                0x0000001e       0x2e c:/ti/ccs1220/ccs/tools/compiler/gcc-arm-none-eabi-9-2019-q4-major/bin/../lib/gcc/arm-none-eabi/9.2.1/thumb/v7e-m/nofp/crtbegin.o
 .ARM.attributes
                0x0000004c       0x1c c:/ti/ccs1220/ccs/tools/compiler/gcc-arm-none-eabi-9-2019-q4-major/bin/../lib/gcc/arm-none-eabi/9.2.1/../../../../arm-none-eabi/lib/thumb/v7e-m/nofp/crt0.o
 .ARM.attributes
                0x00000068       0x32 ./Source/App/Main/main.o
 .ARM.attributes
                0x0000009a       0x32 ./Source/BSP/bsp.o
 .ARM.attributes
                0x000000cc       0x32 ./Source/BSP/startup_tm4c_gnu.o
 .ARM.attributes
                0x000000fe       0x32 ./Source/Driver/ADC/ADC_Driver.o
 .ARM.attributes
                0x00000130       0x32 ./Source/Driver/CAN/CAN_Driver.o
 .ARM.attributes
                0x00000162       0x32 ./Source/Driver/GPIO/GPIOdriver.o
 .ARM.attributes
                0x00000194       0x32 ./Source/Driver/I2C/I2C.o
 .ARM.attributes
                0x000001c6       0x32 ./Source/Driver/LCD/LCD.o
 .ARM.attributes
                0x000001f8       0x32 ./Source/Driver/SPI/SPI.o
 .ARM.attributes
                0x0000022a       0x32 ./Source/Driver/Timer/Timer.o
 .ARM.attributes
                0x0000025c       0x32 ./Source/Driver/Timer/timercnter.o
 .ARM.attributes
                0x0000028e       0x32 ./Source/Driver/UART/UART.o
 .ARM.attributes
                0x000002c0       0x37 ./Source/FreeRtos/croutine.o
 .ARM.attributes
                0x000002f7       0x32 ./Source/FreeRtos/event_groups.o
 .ARM.attributes
                0x00000329       0x32 ./Source/FreeRtos/list.o
 .ARM.attributes
                0x0000035b       0x32 ./Source/FreeRtos/queue.o
 .ARM.attributes
                0x0000038d       0x32 ./Source/FreeRtos/stream_buffer.o
 .ARM.attributes
                0x000003bf       0x32 ./Source/FreeRtos/tasks.o
 .ARM.attributes
                0x000003f1       0x32 ./Source/FreeRtos/timers.o
 .ARM.attributes
                0x00000423       0x37 ./Source/FreeRtos/portable/Common/mpu_wrappers.o
 .ARM.attributes
                0x0000045a       0x32 ./Source/FreeRtos/portable/GCC/ARM_CM4F/port.o
 .ARM.attributes
                0x0000048c       0x32 ./Source/FreeRtos/portable/MemMang/heap_2.o
 .ARM.attributes
                0x000004be       0x32 ./Source/Middleware/MCP3208/MCP3208.o
 .ARM.attributes
                0x000004f0       0x32 ./Source/Middleware/OLED_SSD1306/SSD1306.o
 .ARM.attributes
                0x00000522       0x32 ./Source/Middleware/RTC_DS3231/DS3231.o
 .ARM.attributes
                0x00000554       0x2e c:/ti/ccs1220/ccs/tools/compiler/gcc-arm-none-eabi-9-2019-q4-major/bin/../lib/gcc/arm-none-eabi/9.2.1/../../../../arm-none-eabi/lib/thumb/v7e-m/nofp\libnosys.a(close.o)
 .ARM.attributes
                0x00000582       0x2e c:/ti/ccs1220/ccs/tools/compiler/gcc-arm-none-eabi-9-2019-q4-major/bin/../lib/gcc/arm-none-eabi/9.2.1/../../../../arm-none-eabi/lib/thumb/v7e-m/nofp\libnosys.a(fstat.o)
 .ARM.attributes
                0x000005b0       0x2e c:/ti/ccs1220/ccs/tools/compiler/gcc-arm-none-eabi-9-2019-q4-major/bin/../lib/gcc/arm-none-eabi/9.2.1/../../../../arm-none-eabi/lib/thumb/v7e-m/nofp\libnosys.a(isatty.o)
 .ARM.attributes
                0x000005de       0x2e c:/ti/ccs1220/ccs/tools/compiler/gcc-arm-none-eabi-9-2019-q4-major/bin/../lib/gcc/arm-none-eabi/9.2.1/../../../../arm-none-eabi/lib/thumb/v7e-m/nofp\libnosys.a(lseek.o)
 .ARM.attributes
                0x0000060c       0x2e c:/ti/ccs1220/ccs/tools/compiler/gcc-arm-none-eabi-9-2019-q4-major/bin/../lib/gcc/arm-none-eabi/9.2.1/../../../../arm-none-eabi/lib/thumb/v7e-m/nofp\libnosys.a(read.o)
 .ARM.attributes
                0x0000063a       0x2e c:/ti/ccs1220/ccs/tools/compiler/gcc-arm-none-eabi-9-2019-q4-major/bin/../lib/gcc/arm-none-eabi/9.2.1/../../../../arm-none-eabi/lib/thumb/v7e-m/nofp\libnosys.a(sbrk.o)
 .ARM.attributes
                0x00000668       0x2e c:/ti/ccs1220/ccs/tools/compiler/gcc-arm-none-eabi-9-2019-q4-major/bin/../lib/gcc/arm-none-eabi/9.2.1/../../../../arm-none-eabi/lib/thumb/v7e-m/nofp\libnosys.a(write.o)
 .ARM.attributes
                0x00000696       0x2e c:/ti/ccs1220/ccs/tools/compiler/gcc-arm-none-eabi-9-2019-q4-major/bin/../lib/gcc/arm-none-eabi/9.2.1/../../../../arm-none-eabi/lib/thumb/v7e-m/nofp\libnosys.a(_exit.o)
 .ARM.attributes
                0x000006c4       0x2e c:/ti/ccs1220/ccs/tools/compiler/gcc-arm-none-eabi-9-2019-q4-major/bin/../lib/gcc/arm-none-eabi/9.2.1/thumb/v7e-m/nofp/crtend.o
 .ARM.attributes
                0x000006f2       0x1e c:/ti/ccs1220/ccs/tools/compiler/gcc-arm-none-eabi-9-2019-q4-major/bin/../lib/gcc/arm-none-eabi/9.2.1/thumb/v7e-m/nofp/crtn.o

.comment        0x00000000       0x79
 .comment       0x00000000       0x79 ./Source/App/Main/main.o
                                 0x7a (size before relaxing)
 .comment       0x00000079       0x7a ./Source/BSP/bsp.o
 .comment       0x00000079       0x7a ./Source/BSP/startup_tm4c_gnu.o
 .comment       0x00000079       0x7a ./Source/Driver/ADC/ADC_Driver.o
 .comment       0x00000079       0x7a ./Source/Driver/CAN/CAN_Driver.o
 .comment       0x00000079       0x7a ./Source/Driver/GPIO/GPIOdriver.o
 .comment       0x00000079       0x7a ./Source/Driver/I2C/I2C.o
 .comment       0x00000079       0x7a ./Source/Driver/LCD/LCD.o
 .comment       0x00000079       0x7a ./Source/Driver/SPI/SPI.o
 .comment       0x00000079       0x7a ./Source/Driver/Timer/Timer.o
 .comment       0x00000079       0x7a ./Source/Driver/Timer/timercnter.o
 .comment       0x00000079       0x7a ./Source/Driver/UART/UART.o
 .comment       0x00000079       0x7a ./Source/FreeRtos/croutine.o
 .comment       0x00000079       0x7a ./Source/FreeRtos/event_groups.o
 .comment       0x00000079       0x7a ./Source/FreeRtos/list.o
 .comment       0x00000079       0x7a ./Source/FreeRtos/queue.o
 .comment       0x00000079       0x7a ./Source/FreeRtos/stream_buffer.o
 .comment       0x00000079       0x7a ./Source/FreeRtos/tasks.o
 .comment       0x00000079       0x7a ./Source/FreeRtos/timers.o
 .comment       0x00000079       0x7a ./Source/FreeRtos/portable/Common/mpu_wrappers.o
 .comment       0x00000079       0x7a ./Source/FreeRtos/portable/GCC/ARM_CM4F/port.o
 .comment       0x00000079       0x7a ./Source/FreeRtos/portable/MemMang/heap_2.o
 .comment       0x00000079       0x7a ./Source/Middleware/MCP3208/MCP3208.o
 .comment       0x00000079       0x7a ./Source/Middleware/OLED_SSD1306/SSD1306.o
 .comment       0x00000079       0x7a ./Source/Middleware/RTC_DS3231/DS3231.o

.debug_info     0x00000000    0x170d9
 .debug_info    0x00000000      0xcf0 ./Source/App/Main/main.o
 .debug_info    0x00000cf0      0x45f ./Source/BSP/bsp.o
 .debug_info    0x0000114f      0x1c4 ./Source/BSP/startup_tm4c_gnu.o
 .debug_info    0x00001313     0x15cd ./Source/Driver/ADC/ADC_Driver.o
 .debug_info    0x000028e0     0x1569 ./Source/Driver/CAN/CAN_Driver.o
 .debug_info    0x00003e49     0x11e1 ./Source/Driver/GPIO/GPIOdriver.o
 .debug_info    0x0000502a     0x1689 ./Source/Driver/I2C/I2C.o
 .debug_info    0x000066b3      0x7e1 ./Source/Driver/LCD/LCD.o
 .debug_info    0x00006e94     0x11ff ./Source/Driver/SPI/SPI.o
 .debug_info    0x00008093     0x10e8 ./Source/Driver/Timer/Timer.o
 .debug_info    0x0000917b      0xf8d ./Source/Driver/Timer/timercnter.o
 .debug_info    0x0000a108     0x1320 ./Source/Driver/UART/UART.o
 .debug_info    0x0000b428       0x91 ./Source/FreeRtos/croutine.o
 .debug_info    0x0000b4b9     0x11fa ./Source/FreeRtos/event_groups.o
 .debug_info    0x0000c6b3      0xb8d ./Source/FreeRtos/list.o
 .debug_info    0x0000d240     0x20b1 ./Source/FreeRtos/queue.o
 .debug_info    0x0000f2f1     0x1ad6 ./Source/FreeRtos/stream_buffer.o
 .debug_info    0x00010dc7     0x2ede ./Source/FreeRtos/tasks.o
 .debug_info    0x00013ca5     0x1577 ./Source/FreeRtos/timers.o
 .debug_info    0x0001521c       0x91 ./Source/FreeRtos/portable/Common/mpu_wrappers.o
 .debug_info    0x000152ad      0x513 ./Source/FreeRtos/portable/GCC/ARM_CM4F/port.o
 .debug_info    0x000157c0      0xc74 ./Source/FreeRtos/portable/MemMang/heap_2.o
 .debug_info    0x00016434      0x202 ./Source/Middleware/MCP3208/MCP3208.o
 .debug_info    0x00016636      0x7b2 ./Source/Middleware/OLED_SSD1306/SSD1306.o
 .debug_info    0x00016de8      0x2f1 ./Source/Middleware/RTC_DS3231/DS3231.o

.debug_abbrev   0x00000000     0x31b7
 .debug_abbrev  0x00000000      0x20d ./Source/App/Main/main.o
 .debug_abbrev  0x0000020d      0x15a ./Source/BSP/bsp.o
 .debug_abbrev  0x00000367       0xf6 ./Source/BSP/startup_tm4c_gnu.o
 .debug_abbrev  0x0000045d      0x19f ./Source/Driver/ADC/ADC_Driver.o
 .debug_abbrev  0x000005fc      0x1d4 ./Source/Driver/CAN/CAN_Driver.o
 .debug_abbrev  0x000007d0      0x198 ./Source/Driver/GPIO/GPIOdriver.o
 .debug_abbrev  0x00000968      0x2d1 ./Source/Driver/I2C/I2C.o
 .debug_abbrev  0x00000c39      0x202 ./Source/Driver/LCD/LCD.o
 .debug_abbrev  0x00000e3b      0x1a6 ./Source/Driver/SPI/SPI.o
 .debug_abbrev  0x00000fe1      0x17c ./Source/Driver/Timer/Timer.o
 .debug_abbrev  0x0000115d      0x135 ./Source/Driver/Timer/timercnter.o
 .debug_abbrev  0x00001292      0x235 ./Source/Driver/UART/UART.o
 .debug_abbrev  0x000014c7       0x48 ./Source/FreeRtos/croutine.o
 .debug_abbrev  0x0000150f      0x36c ./Source/FreeRtos/event_groups.o
 .debug_abbrev  0x0000187b      0x234 ./Source/FreeRtos/list.o
 .debug_abbrev  0x00001aaf      0x370 ./Source/FreeRtos/queue.o
 .debug_abbrev  0x00001e1f      0x368 ./Source/FreeRtos/stream_buffer.o
 .debug_abbrev  0x00002187      0x3f1 ./Source/FreeRtos/tasks.o
 .debug_abbrev  0x00002578      0x327 ./Source/FreeRtos/timers.o
 .debug_abbrev  0x0000289f       0x48 ./Source/FreeRtos/portable/Common/mpu_wrappers.o
 .debug_abbrev  0x000028e7      0x230 ./Source/FreeRtos/portable/GCC/ARM_CM4F/port.o
 .debug_abbrev  0x00002b17      0x32f ./Source/FreeRtos/portable/MemMang/heap_2.o
 .debug_abbrev  0x00002e46       0xc3 ./Source/Middleware/MCP3208/MCP3208.o
 .debug_abbrev  0x00002f09      0x1b6 ./Source/Middleware/OLED_SSD1306/SSD1306.o
 .debug_abbrev  0x000030bf       0xf8 ./Source/Middleware/RTC_DS3231/DS3231.o

.debug_aranges  0x00000000      0xb40
 .debug_aranges
                0x00000000       0x20 ./Source/App/Main/main.o
 .debug_aranges
                0x00000020       0x30 ./Source/BSP/bsp.o
 .debug_aranges
                0x00000050       0x50 ./Source/BSP/startup_tm4c_gnu.o
 .debug_aranges
                0x000000a0       0x38 ./Source/Driver/ADC/ADC_Driver.o
 .debug_aranges
                0x000000d8       0x38 ./Source/Driver/CAN/CAN_Driver.o
 .debug_aranges
                0x00000110       0x30 ./Source/Driver/GPIO/GPIOdriver.o
 .debug_aranges
                0x00000140       0xa8 ./Source/Driver/I2C/I2C.o
 .debug_aranges
                0x000001e8       0x78 ./Source/Driver/LCD/LCD.o
 .debug_aranges
                0x00000260       0x40 ./Source/Driver/SPI/SPI.o
 .debug_aranges
                0x000002a0       0x48 ./Source/Driver/Timer/Timer.o
 .debug_aranges
                0x000002e8       0x48 ./Source/Driver/Timer/timercnter.o
 .debug_aranges
                0x00000330       0x48 ./Source/Driver/UART/UART.o
 .debug_aranges
                0x00000378       0x18 ./Source/FreeRtos/croutine.o
 .debug_aranges
                0x00000390       0x78 ./Source/FreeRtos/event_groups.o
 .debug_aranges
                0x00000408       0x40 ./Source/FreeRtos/list.o
 .debug_aranges
                0x00000448      0x130 ./Source/FreeRtos/queue.o
 .debug_aranges
                0x00000578       0xd8 ./Source/FreeRtos/stream_buffer.o
 .debug_aranges
                0x00000650      0x208 ./Source/FreeRtos/tasks.o
 .debug_aranges
                0x00000858       0xe8 ./Source/FreeRtos/timers.o
 .debug_aranges
                0x00000940       0x18 ./Source/FreeRtos/portable/Common/mpu_wrappers.o
 .debug_aranges
                0x00000958       0x80 ./Source/FreeRtos/portable/GCC/ARM_CM4F/port.o
 .debug_aranges
                0x000009d8       0x48 ./Source/FreeRtos/portable/MemMang/heap_2.o
 .debug_aranges
                0x00000a20       0x20 ./Source/Middleware/MCP3208/MCP3208.o
 .debug_aranges
                0x00000a40       0xa8 ./Source/Middleware/OLED_SSD1306/SSD1306.o
 .debug_aranges
                0x00000ae8       0x58 ./Source/Middleware/RTC_DS3231/DS3231.o

.debug_ranges   0x00000000      0x9b8
 .debug_ranges  0x00000000       0x10 ./Source/App/Main/main.o
 .debug_ranges  0x00000010       0x20 ./Source/BSP/bsp.o
 .debug_ranges  0x00000030       0x40 ./Source/BSP/startup_tm4c_gnu.o
 .debug_ranges  0x00000070       0x28 ./Source/Driver/ADC/ADC_Driver.o
 .debug_ranges  0x00000098       0x28 ./Source/Driver/CAN/CAN_Driver.o
 .debug_ranges  0x000000c0       0x20 ./Source/Driver/GPIO/GPIOdriver.o
 .debug_ranges  0x000000e0       0x98 ./Source/Driver/I2C/I2C.o
 .debug_ranges  0x00000178       0x68 ./Source/Driver/LCD/LCD.o
 .debug_ranges  0x000001e0       0x30 ./Source/Driver/SPI/SPI.o
 .debug_ranges  0x00000210       0x38 ./Source/Driver/Timer/Timer.o
 .debug_ranges  0x00000248       0x38 ./Source/Driver/Timer/timercnter.o
 .debug_ranges  0x00000280       0x38 ./Source/Driver/UART/UART.o
 .debug_ranges  0x000002b8       0x68 ./Source/FreeRtos/event_groups.o
 .debug_ranges  0x00000320       0x30 ./Source/FreeRtos/list.o
 .debug_ranges  0x00000350      0x120 ./Source/FreeRtos/queue.o
 .debug_ranges  0x00000470       0xc8 ./Source/FreeRtos/stream_buffer.o
 .debug_ranges  0x00000538      0x1f8 ./Source/FreeRtos/tasks.o
 .debug_ranges  0x00000730       0xd8 ./Source/FreeRtos/timers.o
 .debug_ranges  0x00000808       0x70 ./Source/FreeRtos/portable/GCC/ARM_CM4F/port.o
 .debug_ranges  0x00000878       0x38 ./Source/FreeRtos/portable/MemMang/heap_2.o
 .debug_ranges  0x000008b0       0x10 ./Source/Middleware/MCP3208/MCP3208.o
 .debug_ranges  0x000008c0       0xb0 ./Source/Middleware/OLED_SSD1306/SSD1306.o
 .debug_ranges  0x00000970       0x48 ./Source/Middleware/RTC_DS3231/DS3231.o

.debug_line     0x00000000     0x8db4
 .debug_line    0x00000000      0x347 ./Source/App/Main/main.o
 .debug_line    0x00000347      0x232 ./Source/BSP/bsp.o
 .debug_line    0x00000579      0x135 ./Source/BSP/startup_tm4c_gnu.o
 .debug_line    0x000006ae      0x388 ./Source/Driver/ADC/ADC_Driver.o
 .debug_line    0x00000a36      0x426 ./Source/Driver/CAN/CAN_Driver.o
 .debug_line    0x00000e5c      0x35e ./Source/Driver/GPIO/GPIOdriver.o
 .debug_line    0x000011ba      0x62b ./Source/Driver/I2C/I2C.o
 .debug_line    0x000017e5      0x45f ./Source/Driver/LCD/LCD.o
 .debug_line    0x00001c44      0x363 ./Source/Driver/SPI/SPI.o
 .debug_line    0x00001fa7      0x300 ./Source/Driver/Timer/Timer.o
 .debug_line    0x000022a7      0x235 ./Source/Driver/Timer/timercnter.o
 .debug_line    0x000024dc      0x3c1 ./Source/Driver/UART/UART.o
 .debug_line    0x0000289d      0x151 ./Source/FreeRtos/croutine.o
 .debug_line    0x000029ee      0x737 ./Source/FreeRtos/event_groups.o
 .debug_line    0x00003125      0x3e2 ./Source/FreeRtos/list.o
 .debug_line    0x00003507     0x12bc ./Source/FreeRtos/queue.o
 .debug_line    0x000047c3      0xc1c ./Source/FreeRtos/stream_buffer.o
 .debug_line    0x000053df     0x1a52 ./Source/FreeRtos/tasks.o
 .debug_line    0x00006e31      0x901 ./Source/FreeRtos/timers.o
 .debug_line    0x00007732      0x151 ./Source/FreeRtos/portable/Common/mpu_wrappers.o
 .debug_line    0x00007883      0x57b ./Source/FreeRtos/portable/GCC/ARM_CM4F/port.o
 .debug_line    0x00007dfe      0x47e ./Source/FreeRtos/portable/MemMang/heap_2.o
 .debug_line    0x0000827c      0x276 ./Source/Middleware/MCP3208/MCP3208.o
 .debug_line    0x000084f2      0x644 ./Source/Middleware/OLED_SSD1306/SSD1306.o
 .debug_line    0x00008b36      0x27e ./Source/Middleware/RTC_DS3231/DS3231.o

.debug_str      0x00000000     0x455b
 .debug_str     0x00000000      0x73d ./Source/App/Main/main.o
                                0x7cf (size before relaxing)
 .debug_str     0x0000073d       0xb9 ./Source/BSP/bsp.o
                                0x39f (size before relaxing)
 .debug_str     0x000007f6      0x127 ./Source/BSP/startup_tm4c_gnu.o
                                0x247 (size before relaxing)
 .debug_str     0x0000091d      0x764 ./Source/Driver/ADC/ADC_Driver.o
                                0xa82 (size before relaxing)
 .debug_str     0x00001081      0x289 ./Source/Driver/CAN/CAN_Driver.o
                                0xbc9 (size before relaxing)
 .debug_str     0x0000130a       0x8f ./Source/Driver/GPIO/GPIOdriver.o
                                0x942 (size before relaxing)
 .debug_str     0x00001399      0x2ef ./Source/Driver/I2C/I2C.o
                                0xb74 (size before relaxing)
 .debug_str     0x00001688      0x13e ./Source/Driver/LCD/LCD.o
                                0x487 (size before relaxing)
 .debug_str     0x000017c6       0x96 ./Source/Driver/SPI/SPI.o
                                0x91f (size before relaxing)
 .debug_str     0x0000185c      0x143 ./Source/Driver/Timer/Timer.o
                                0xa40 (size before relaxing)
 .debug_str     0x0000199f       0xa8 ./Source/Driver/Timer/timercnter.o
                                0x92a (size before relaxing)
 .debug_str     0x00001a47      0x18c ./Source/Driver/UART/UART.o
                                0xa4e (size before relaxing)
 .debug_str     0x00001bd3       0x1e ./Source/FreeRtos/croutine.o
                                0x1d9 (size before relaxing)
 .debug_str     0x00001bf1      0x3d4 ./Source/FreeRtos/event_groups.o
                                0x9b4 (size before relaxing)
 .debug_str     0x00001fc5       0xa7 ./Source/FreeRtos/list.o
                                0x6f0 (size before relaxing)
 .debug_str     0x0000206c      0x68c ./Source/FreeRtos/queue.o
                                0xdc0 (size before relaxing)
 .debug_str     0x000026f8      0x56f ./Source/FreeRtos/stream_buffer.o
                                0xc6f (size before relaxing)
 .debug_str     0x00002c67      0xd0f ./Source/FreeRtos/tasks.o
                               0x154d (size before relaxing)
 .debug_str     0x00003976      0x482 ./Source/FreeRtos/timers.o
                                0xbc3 (size before relaxing)
 .debug_str     0x00003df8       0x32 ./Source/FreeRtos/portable/Common/mpu_wrappers.o
                                0x1ed (size before relaxing)
 .debug_str     0x00003e2a      0x207 ./Source/FreeRtos/portable/GCC/ARM_CM4F/port.o
                                0x469 (size before relaxing)
 .debug_str     0x00004031      0x182 ./Source/FreeRtos/portable/MemMang/heap_2.o
                                0x78a (size before relaxing)
 .debug_str     0x000041b3       0x76 ./Source/Middleware/MCP3208/MCP3208.o
                                0x333 (size before relaxing)
 .debug_str     0x00004229      0x20c ./Source/Middleware/OLED_SSD1306/SSD1306.o
                                0x518 (size before relaxing)
 .debug_str     0x00004435      0x126 ./Source/Middleware/RTC_DS3231/DS3231.o
                                0x3c3 (size before relaxing)

.debug_frame    0x00000000     0x2a20
 .debug_frame   0x00000000       0x30 ./Source/App/Main/main.o
 .debug_frame   0x00000030       0x58 ./Source/BSP/bsp.o
 .debug_frame   0x00000088       0x94 ./Source/BSP/startup_tm4c_gnu.o
 .debug_frame   0x0000011c       0xa4 ./Source/Driver/ADC/ADC_Driver.o
 .debug_frame   0x000001c0       0xac ./Source/Driver/CAN/CAN_Driver.o
 .debug_frame   0x0000026c       0x78 ./Source/Driver/GPIO/GPIOdriver.o
 .debug_frame   0x000002e4      0x294 ./Source/Driver/I2C/I2C.o
 .debug_frame   0x00000578      0x1a8 ./Source/Driver/LCD/LCD.o
 .debug_frame   0x00000720       0xb0 ./Source/Driver/SPI/SPI.o
 .debug_frame   0x000007d0       0xcc ./Source/Driver/Timer/Timer.o
 .debug_frame   0x0000089c       0xd8 ./Source/Driver/Timer/timercnter.o
 .debug_frame   0x00000974       0xf4 ./Source/Driver/UART/UART.o
 .debug_frame   0x00000a68      0x1d0 ./Source/FreeRtos/event_groups.o
 .debug_frame   0x00000c38       0xd8 ./Source/FreeRtos/list.o
 .debug_frame   0x00000d10      0x530 ./Source/FreeRtos/queue.o
 .debug_frame   0x00001240      0x3ac ./Source/FreeRtos/stream_buffer.o
 .debug_frame   0x000015ec      0x8e4 ./Source/FreeRtos/tasks.o
 .debug_frame   0x00001ed0      0x3c8 ./Source/FreeRtos/timers.o
 .debug_frame   0x00002298      0x1a8 ./Source/FreeRtos/portable/GCC/ARM_CM4F/port.o
 .debug_frame   0x00002440       0xe4 ./Source/FreeRtos/portable/MemMang/heap_2.o
 .debug_frame   0x00002524       0x2c ./Source/Middleware/MCP3208/MCP3208.o
 .debug_frame   0x00002550      0x298 ./Source/Middleware/OLED_SSD1306/SSD1306.o
 .debug_frame   0x000027e8      0x138 ./Source/Middleware/RTC_DS3231/DS3231.o
 .debug_frame   0x00002920       0x20 c:/ti/ccs1220/ccs/tools/compiler/gcc-arm-none-eabi-9-2019-q4-major/bin/../lib/gcc/arm-none-eabi/9.2.1/../../../../arm-none-eabi/lib/thumb/v7e-m/nofp\libnosys.a(close.o)
 .debug_frame   0x00002940       0x20 c:/ti/ccs1220/ccs/tools/compiler/gcc-arm-none-eabi-9-2019-q4-major/bin/../lib/gcc/arm-none-eabi/9.2.1/../../../../arm-none-eabi/lib/thumb/v7e-m/nofp\libnosys.a(fstat.o)
 .debug_frame   0x00002960       0x20 c:/ti/ccs1220/ccs/tools/compiler/gcc-arm-none-eabi-9-2019-q4-major/bin/../lib/gcc/arm-none-eabi/9.2.1/../../../../arm-none-eabi/lib/thumb/v7e-m/nofp\libnosys.a(isatty.o)
 .debug_frame   0x00002980       0x20 c:/ti/ccs1220/ccs/tools/compiler/gcc-arm-none-eabi-9-2019-q4-major/bin/../lib/gcc/arm-none-eabi/9.2.1/../../../../arm-none-eabi/lib/thumb/v7e-m/nofp\libnosys.a(lseek.o)
 .debug_frame   0x000029a0       0x20 c:/ti/ccs1220/ccs/tools/compiler/gcc-arm-none-eabi-9-2019-q4-major/bin/../lib/gcc/arm-none-eabi/9.2.1/../../../../arm-none-eabi/lib/thumb/v7e-m/nofp\libnosys.a(read.o)
 .debug_frame   0x000029c0       0x20 c:/ti/ccs1220/ccs/tools/compiler/gcc-arm-none-eabi-9-2019-q4-major/bin/../lib/gcc/arm-none-eabi/9.2.1/../../../../arm-none-eabi/lib/thumb/v7e-m/nofp\libnosys.a(sbrk.o)
 .debug_frame   0x000029e0       0x20 c:/ti/ccs1220/ccs/tools/compiler/gcc-arm-none-eabi-9-2019-q4-major/bin/../lib/gcc/arm-none-eabi/9.2.1/../../../../arm-none-eabi/lib/thumb/v7e-m/nofp\libnosys.a(write.o)
 .debug_frame   0x00002a00       0x20 c:/ti/ccs1220/ccs/tools/compiler/gcc-arm-none-eabi-9-2019-q4-major/bin/../lib/gcc/arm-none-eabi/9.2.1/../../../../arm-none-eabi/lib/thumb/v7e-m/nofp\libnosys.a(_exit.o)

.stab           0x00000000       0x9c
 .stab          0x00000000       0x24 c:/ti/ccs1220/ccs/tools/compiler/gcc-arm-none-eabi-9-2019-q4-major/bin/../lib/gcc/arm-none-eabi/9.2.1/../../../../arm-none-eabi/lib/thumb/v7e-m/nofp\libnosys.a(close.o)
 .stab          0x00000024       0x18 c:/ti/ccs1220/ccs/tools/compiler/gcc-arm-none-eabi-9-2019-q4-major/bin/../lib/gcc/arm-none-eabi/9.2.1/../../../../arm-none-eabi/lib/thumb/v7e-m/nofp\libnosys.a(fstat.o)
                                 0x24 (size before relaxing)
 .stab          0x0000003c       0x18 c:/ti/ccs1220/ccs/tools/compiler/gcc-arm-none-eabi-9-2019-q4-major/bin/../lib/gcc/arm-none-eabi/9.2.1/../../../../arm-none-eabi/lib/thumb/v7e-m/nofp\libnosys.a(isatty.o)
                                 0x24 (size before relaxing)
 .stab          0x00000054       0x18 c:/ti/ccs1220/ccs/tools/compiler/gcc-arm-none-eabi-9-2019-q4-major/bin/../lib/gcc/arm-none-eabi/9.2.1/../../../../arm-none-eabi/lib/thumb/v7e-m/nofp\libnosys.a(lseek.o)
                                 0x24 (size before relaxing)
 .stab          0x0000006c       0x18 c:/ti/ccs1220/ccs/tools/compiler/gcc-arm-none-eabi-9-2019-q4-major/bin/../lib/gcc/arm-none-eabi/9.2.1/../../../../arm-none-eabi/lib/thumb/v7e-m/nofp\libnosys.a(read.o)
                                 0x24 (size before relaxing)
 .stab          0x00000084       0x18 c:/ti/ccs1220/ccs/tools/compiler/gcc-arm-none-eabi-9-2019-q4-major/bin/../lib/gcc/arm-none-eabi/9.2.1/../../../../arm-none-eabi/lib/thumb/v7e-m/nofp\libnosys.a(write.o)
                                 0x24 (size before relaxing)

.stabstr        0x00000000      0x14d
 .stabstr       0x00000000      0x14d c:/ti/ccs1220/ccs/tools/compiler/gcc-arm-none-eabi-9-2019-q4-major/bin/../lib/gcc/arm-none-eabi/9.2.1/../../../../arm-none-eabi/lib/thumb/v7e-m/nofp\libnosys.a(close.o)
